
text.elf:     file format elf32-littlearm

Disassembly of section .text:

30000000 <_start>:
30000000:	ea000026 	b	300000a0 <reset>
30000004:	e59ff128 	ldr	pc, [pc, #296]	; 30000134 <.text+0x134>
30000008:	e59ff128 	ldr	pc, [pc, #296]	; 30000138 <.text+0x138>
3000000c:	ea000047 	b	30000130 <halt>
30000010:	ea000046 	b	30000130 <halt>
30000014:	ea000045 	b	30000130 <halt>
30000018:	e59ff11c 	ldr	pc, [pc, #284]	; 3000013c <.text+0x13c>
3000001c:	ea000043 	b	30000130 <halt>

30000020 <do_irq>:
30000020:	e59fd118 	ldr	sp, [pc, #280]	; 30000140 <.text+0x140>
30000024:	e24ee004 	sub	lr, lr, #4	; 0x4
30000028:	e92d5fff 	stmdb	sp!, {r0, r1, r2, r3, r4, r5, r6, r7, r8, r9, sl, fp, ip, lr}
3000002c:	eb0014c8 	bl	30005354 <handle_irq>
30000030:	e8fd9fff 	ldmia	sp!, {r0, r1, r2, r3, r4, r5, r6, r7, r8, r9, sl, fp, ip, pc}^

30000034 <do_swi>:
30000034:	e59fd108 	ldr	sp, [pc, #264]	; 30000144 <.text+0x144>
30000038:	e92d5fff 	stmdb	sp!, {r0, r1, r2, r3, r4, r5, r6, r7, r8, r9, sl, fp, ip, lr}
3000003c:	e1a0400e 	mov	r4, lr
30000040:	e10f0000 	mrs	r0, CPSR
30000044:	e59f10fc 	ldr	r1, [pc, #252]	; 30000148 <.text+0x148>
30000048:	eb00146e 	bl	30005208 <printException>
3000004c:	e2440004 	sub	r0, r4, #4	; 0x4
30000050:	eb001479 	bl	3000523c <printSWIVal>
30000054:	e8fd9fff 	ldmia	sp!, {r0, r1, r2, r3, r4, r5, r6, r7, r8, r9, sl, fp, ip, pc}^

30000058 <swi_string>:
30000058:	735f6f64 	cmpvc	pc, #400	; 0x190
3000005c:	21206376 	teqcs	r0, r6, ror r3
30000060:	21212121 	teqcs	r1, r1, lsr #2
30000064:	00212121 	eoreq	r2, r1, r1, lsr #2
	...

30000070 <do_und>:
30000070:	e59fd0d4 	ldr	sp, [pc, #212]	; 3000014c <.text+0x14c>
30000074:	e92d5fff 	stmdb	sp!, {r0, r1, r2, r3, r4, r5, r6, r7, r8, r9, sl, fp, ip, lr}
30000078:	e10f0000 	mrs	r0, CPSR
3000007c:	e59f10cc 	ldr	r1, [pc, #204]	; 30000150 <.text+0x150>
30000080:	eb001460 	bl	30005208 <printException>
30000084:	e8fd9fff 	ldmia	sp!, {r0, r1, r2, r3, r4, r5, r6, r7, r8, r9, sl, fp, ip, pc}^

30000088 <und_string>:
30000088:	755f6f64 	ldrvcb	r6, [pc, #-3940]	; 2ffff12c <code_start-0xed4>
3000008c:	2120646e 	teqcs	r0, lr, ror #8
30000090:	21212121 	teqcs	r1, r1, lsr #2
30000094:	00212121 	eoreq	r2, r1, r1, lsr #2
	...

300000a0 <reset>:
300000a0:	e3a00453 	mov	r0, #1392508928	; 0x53000000
300000a4:	e3a01000 	mov	r1, #0	; 0x0
300000a8:	e5801000 	str	r1, [r0]
300000ac:	e3a00313 	mov	r0, #1275068416	; 0x4c000000
300000b0:	e3e01000 	mvn	r1, #0	; 0x0
300000b4:	e5801000 	str	r1, [r0]
300000b8:	e59f0094 	ldr	r0, [pc, #148]	; 30000154 <.text+0x154>
300000bc:	e3a01005 	mov	r1, #5	; 0x5
300000c0:	e5801000 	str	r1, [r0]
300000c4:	ee110f10 	mrc	15, 0, r0, cr1, cr0, {0}
300000c8:	e3800103 	orr	r0, r0, #-1073741824	; 0xc0000000
300000cc:	ee010f10 	mcr	15, 0, r0, cr1, cr0, {0}
300000d0:	e59f0080 	ldr	r0, [pc, #128]	; 30000158 <.text+0x158>
300000d4:	e59f1080 	ldr	r1, [pc, #128]	; 3000015c <.text+0x15c>
300000d8:	e5801000 	str	r1, [r0]
300000dc:	e3a01000 	mov	r1, #0	; 0x0
300000e0:	e5910000 	ldr	r0, [r1]
300000e4:	e5811000 	str	r1, [r1]
300000e8:	e5912000 	ldr	r2, [r1]
300000ec:	e1510002 	cmp	r1, r2
300000f0:	e59fd068 	ldr	sp, [pc, #104]	; 30000160 <.text+0x160>
300000f4:	03a0da01 	moveq	sp, #4096	; 0x1000
300000f8:	05810000 	streq	r0, [r1]
300000fc:	eb000039 	bl	300001e8 <relocation>
30000100:	e10f0000 	mrs	r0, CPSR
30000104:	e3c0000f 	bic	r0, r0, #15	; 0xf
30000108:	e3c00080 	bic	r0, r0, #128	; 0x80
3000010c:	e129f000 	msr	CPSR_fc, r0
30000110:	e3a0d30d 	mov	sp, #872415232	; 0x34000000
30000114:	e59ff048 	ldr	pc, [pc, #72]	; 30000164 <.text+0x164>

30000118 <next>:
30000118:	eb00006b 	bl	300002cc <init>
3000011c:	eb001101 	bl	30004528 <led1on>
30000120:	deadc0de 	mcrle	0, 5, ip, cr13, cr14, {6}
30000124:	eb001108 	bl	3000454c <led1off>
30000128:	ef000123 	swi	0x00000123
3000012c:	eb00150d 	bl	30005568 <main>

30000130 <halt>:
30000130:	eafffffe 	b	30000130 <halt>
30000134:	30000070 	andcc	r0, r0, r0, ror r0
30000138:	30000034 	andcc	r0, r0, r4, lsr r0
3000013c:	30000020 	andcc	r0, r0, r0, lsr #32
30000140:	33ffe000 	mvnccs	lr, #0	; 0x0
30000144:	33ffd000 	mvnccs	sp, #0	; 0x0
30000148:	30000058 	andcc	r0, r0, r8, asr r0
3000014c:	33ffa000 	mvnccs	sl, #0	; 0x0
30000150:	30000088 	andcc	r0, r0, r8, lsl #1
30000154:	4c000014 	stcmi	0, cr0, [r0], {20}
30000158:	4c000004 	stcmi	0, cr0, [r0], {4}
3000015c:	0005c011 	andeq	ip, r5, r1, lsl r0
30000160:	40001000 	andmi	r1, r0, r0
30000164:	30000118 	andcc	r0, r0, r8, lsl r1
30000168:	e1a00000 	nop			(mov r0,r0)
3000016c:	e1a00000 	nop			(mov r0,r0)

30000170 <nand_boot>:
30000170:	e1a0c00d 	mov	ip, sp
30000174:	e92dd800 	stmdb	sp!, {fp, ip, lr, pc}
30000178:	e24cb004 	sub	fp, ip, #4	; 0x4
3000017c:	e24dd00c 	sub	sp, sp, #12	; 0xc
30000180:	e3a03010 	mov	r3, #16	; 0x10
30000184:	e50b3010 	str	r3, [fp, #-16]
30000188:	e51b3010 	ldr	r3, [fp, #-16]
3000018c:	e5933000 	ldr	r3, [r3]
30000190:	e50b3014 	str	r3, [fp, #-20]
30000194:	e51b2010 	ldr	r2, [fp, #-16]
30000198:	e51b3010 	ldr	r3, [fp, #-16]
3000019c:	e5933000 	ldr	r3, [r3]
300001a0:	e2833001 	add	r3, r3, #1	; 0x1
300001a4:	e5823000 	str	r3, [r2]
300001a8:	e51b3010 	ldr	r3, [fp, #-16]
300001ac:	e5932000 	ldr	r2, [r3]
300001b0:	e51b3014 	ldr	r3, [fp, #-20]
300001b4:	e1520003 	cmp	r2, r3
300001b8:	1a000002 	bne	300001c8 <nand_boot+0x58>
300001bc:	e3a03000 	mov	r3, #0	; 0x0
300001c0:	e50b3018 	str	r3, [fp, #-24]
300001c4:	ea000004 	b	300001dc <nand_boot+0x6c>
300001c8:	e51b2010 	ldr	r2, [fp, #-16]
300001cc:	e51b3014 	ldr	r3, [fp, #-20]
300001d0:	e5823000 	str	r3, [r2]
300001d4:	e3a03001 	mov	r3, #1	; 0x1
300001d8:	e50b3018 	str	r3, [fp, #-24]
300001dc:	e51b0018 	ldr	r0, [fp, #-24]
300001e0:	e24bd00c 	sub	sp, fp, #12	; 0xc
300001e4:	e89da800 	ldmia	sp, {fp, sp, pc}

300001e8 <relocation>:
300001e8:	e1a0c00d 	mov	ip, sp
300001ec:	e92dd800 	stmdb	sp!, {fp, ip, lr, pc}
300001f0:	e24cb004 	sub	fp, ip, #4	; 0x4
300001f4:	e24dd010 	sub	sp, sp, #16	; 0x10
300001f8:	e3a03000 	mov	r3, #0	; 0x0
300001fc:	e50b3010 	str	r3, [fp, #-16]
30000200:	e59f30b8 	ldr	r3, [pc, #184]	; 300002c0 <.text+0x2c0>
30000204:	e50b3014 	str	r3, [fp, #-20]
30000208:	e59f30b4 	ldr	r3, [pc, #180]	; 300002c4 <.text+0x2c4>
3000020c:	e50b3018 	str	r3, [fp, #-24]
30000210:	e59f30b0 	ldr	r3, [pc, #176]	; 300002c8 <.text+0x2c8>
30000214:	e50b301c 	str	r3, [fp, #-28]
30000218:	eb0002dd 	bl	30000d94 <sdram_config>
3000021c:	eb000042 	bl	3000032c <nand_init>
30000220:	ebffffd2 	bl	30000170 <nand_boot>
30000224:	e1a03000 	mov	r3, r0
30000228:	e3530000 	cmp	r3, #0	; 0x0
3000022c:	0a000007 	beq	30000250 <relocation+0x68>
30000230:	e51b3018 	ldr	r3, [fp, #-24]
30000234:	e51b2014 	ldr	r2, [fp, #-20]
30000238:	e0623003 	rsb	r3, r2, r3
3000023c:	e3a00000 	mov	r0, #0	; 0x0
30000240:	e51b1014 	ldr	r1, [fp, #-20]
30000244:	e1a02003 	mov	r2, r3
30000248:	eb0000db 	bl	300005bc <nand_read>
3000024c:	ea00000e 	b	3000028c <relocation+0xa4>
30000250:	e51b2014 	ldr	r2, [fp, #-20]
30000254:	e51b3018 	ldr	r3, [fp, #-24]
30000258:	e1520003 	cmp	r2, r3
3000025c:	2a00000a 	bcs	3000028c <relocation+0xa4>
30000260:	e51b2014 	ldr	r2, [fp, #-20]
30000264:	e51b3010 	ldr	r3, [fp, #-16]
30000268:	e5933000 	ldr	r3, [r3]
3000026c:	e5823000 	str	r3, [r2]
30000270:	e51b3014 	ldr	r3, [fp, #-20]
30000274:	e2833004 	add	r3, r3, #4	; 0x4
30000278:	e50b3014 	str	r3, [fp, #-20]
3000027c:	e51b3010 	ldr	r3, [fp, #-16]
30000280:	e2833004 	add	r3, r3, #4	; 0x4
30000284:	e50b3010 	str	r3, [fp, #-16]
30000288:	eafffff0 	b	30000250 <relocation+0x68>
3000028c:	e51b2018 	ldr	r2, [fp, #-24]
30000290:	e51b301c 	ldr	r3, [fp, #-28]
30000294:	e1520003 	cmp	r2, r3
30000298:	2a000006 	bcs	300002b8 <relocation+0xd0>
3000029c:	e51b2018 	ldr	r2, [fp, #-24]
300002a0:	e3a03000 	mov	r3, #0	; 0x0
300002a4:	e5823000 	str	r3, [r2]
300002a8:	e51b3018 	ldr	r3, [fp, #-24]
300002ac:	e2833004 	add	r3, r3, #4	; 0x4
300002b0:	e50b3018 	str	r3, [fp, #-24]
300002b4:	eafffff4 	b	3000028c <relocation+0xa4>
300002b8:	e24bd00c 	sub	sp, fp, #12	; 0xc
300002bc:	e89da800 	ldmia	sp, {fp, sp, pc}
300002c0:	30000000 	andcc	r0, r0, r0
300002c4:	30007894 	mulcc	r0, r4, r8
300002c8:	30007a50 	andcc	r7, r0, r0, asr sl

300002cc <init>:
300002cc:	e1a0c00d 	mov	ip, sp
300002d0:	e92dd800 	stmdb	sp!, {fp, ip, lr, pc}
300002d4:	e24cb004 	sub	fp, ip, #4	; 0x4
300002d8:	eb00055a 	bl	30001848 <inierript_config>
300002dc:	eb000e94 	bl	30003d34 <uart0_config>
300002e0:	eb001082 	bl	300044f0 <led_config>
300002e4:	eb0005e3 	bl	30001a78 <key_config>
300002e8:	eb001111 	bl	30004734 <timer0_config>
300002ec:	eb00113f 	bl	300047f0 <timer1_config>
300002f0:	eb00104a 	bl	30004420 <touchscreen_init>
300002f4:	e1a00003 	mov	r0, r3
300002f8:	e89da800 	ldmia	sp, {fp, sp, pc}

300002fc <wait_ready>:
300002fc:	e1a0c00d 	mov	ip, sp
30000300:	e92dd800 	stmdb	sp!, {fp, ip, lr, pc}
30000304:	e24cb004 	sub	fp, ip, #4	; 0x4
30000308:	e3a0344e 	mov	r3, #1308622848	; 0x4e000000
3000030c:	e2833020 	add	r3, r3, #32	; 0x20
30000310:	e5d33000 	ldrb	r3, [r3]
30000314:	e20330ff 	and	r3, r3, #255	; 0xff
30000318:	e2033001 	and	r3, r3, #1	; 0x1
3000031c:	e3530000 	cmp	r3, #0	; 0x0
30000320:	1a000000 	bne	30000328 <wait_ready+0x2c>
30000324:	eafffff7 	b	30000308 <wait_ready+0xc>
30000328:	e89da800 	ldmia	sp, {fp, sp, pc}

3000032c <nand_init>:
3000032c:	e1a0c00d 	mov	ip, sp
30000330:	e92dd800 	stmdb	sp!, {fp, ip, lr, pc}
30000334:	e24cb004 	sub	fp, ip, #4	; 0x4
30000338:	e3a0244e 	mov	r2, #1308622848	; 0x4e000000
3000033c:	e3a03c01 	mov	r3, #256	; 0x100
30000340:	e5823000 	str	r3, [r2]
30000344:	e3a0344e 	mov	r3, #1308622848	; 0x4e000000
30000348:	e2833004 	add	r3, r3, #4	; 0x4
3000034c:	e3a02013 	mov	r2, #19	; 0x13
30000350:	e5832000 	str	r2, [r3]
30000354:	e89da800 	ldmia	sp, {fp, sp, pc}

30000358 <nand_select>:
30000358:	e1a0c00d 	mov	ip, sp
3000035c:	e92dd800 	stmdb	sp!, {fp, ip, lr, pc}
30000360:	e24cb004 	sub	fp, ip, #4	; 0x4
30000364:	e3a0244e 	mov	r2, #1308622848	; 0x4e000000
30000368:	e2822004 	add	r2, r2, #4	; 0x4
3000036c:	e3a0344e 	mov	r3, #1308622848	; 0x4e000000
30000370:	e2833004 	add	r3, r3, #4	; 0x4
30000374:	e5933000 	ldr	r3, [r3]
30000378:	e3c33002 	bic	r3, r3, #2	; 0x2
3000037c:	e5823000 	str	r3, [r2]
30000380:	e89da800 	ldmia	sp, {fp, sp, pc}

30000384 <nand_deselect>:
30000384:	e1a0c00d 	mov	ip, sp
30000388:	e92dd800 	stmdb	sp!, {fp, ip, lr, pc}
3000038c:	e24cb004 	sub	fp, ip, #4	; 0x4
30000390:	e3a0244e 	mov	r2, #1308622848	; 0x4e000000
30000394:	e2822004 	add	r2, r2, #4	; 0x4
30000398:	e3a0344e 	mov	r3, #1308622848	; 0x4e000000
3000039c:	e2833004 	add	r3, r3, #4	; 0x4
300003a0:	e5933000 	ldr	r3, [r3]
300003a4:	e3833002 	orr	r3, r3, #2	; 0x2
300003a8:	e5823000 	str	r3, [r2]
300003ac:	e89da800 	ldmia	sp, {fp, sp, pc}

300003b0 <nand_cmd>:
300003b0:	e1a0c00d 	mov	ip, sp
300003b4:	e92dd800 	stmdb	sp!, {fp, ip, lr, pc}
300003b8:	e24cb004 	sub	fp, ip, #4	; 0x4
300003bc:	e24dd008 	sub	sp, sp, #8	; 0x8
300003c0:	e1a03000 	mov	r3, r0
300003c4:	e54b300d 	strb	r3, [fp, #-13]
300003c8:	e3a0344e 	mov	r3, #1308622848	; 0x4e000000
300003cc:	e2833008 	add	r3, r3, #8	; 0x8
300003d0:	e55b200d 	ldrb	r2, [fp, #-13]
300003d4:	e5c32000 	strb	r2, [r3]
300003d8:	e3a03000 	mov	r3, #0	; 0x0
300003dc:	e50b3014 	str	r3, [fp, #-20]
300003e0:	e51b3014 	ldr	r3, [fp, #-20]
300003e4:	e3530009 	cmp	r3, #9	; 0x9
300003e8:	ca000003 	bgt	300003fc <nand_cmd+0x4c>
300003ec:	e51b3014 	ldr	r3, [fp, #-20]
300003f0:	e2833001 	add	r3, r3, #1	; 0x1
300003f4:	e50b3014 	str	r3, [fp, #-20]
300003f8:	eafffff8 	b	300003e0 <nand_cmd+0x30>
300003fc:	e24bd00c 	sub	sp, fp, #12	; 0xc
30000400:	e89da800 	ldmia	sp, {fp, sp, pc}

30000404 <nand_addr_byte>:
30000404:	e1a0c00d 	mov	ip, sp
30000408:	e92dd800 	stmdb	sp!, {fp, ip, lr, pc}
3000040c:	e24cb004 	sub	fp, ip, #4	; 0x4
30000410:	e24dd008 	sub	sp, sp, #8	; 0x8
30000414:	e1a03000 	mov	r3, r0
30000418:	e54b300d 	strb	r3, [fp, #-13]
3000041c:	e3a0344e 	mov	r3, #1308622848	; 0x4e000000
30000420:	e283300c 	add	r3, r3, #12	; 0xc
30000424:	e55b200d 	ldrb	r2, [fp, #-13]
30000428:	e5c32000 	strb	r2, [r3]
3000042c:	e3a03000 	mov	r3, #0	; 0x0
30000430:	e50b3014 	str	r3, [fp, #-20]
30000434:	e51b3014 	ldr	r3, [fp, #-20]
30000438:	e3530009 	cmp	r3, #9	; 0x9
3000043c:	ca000003 	bgt	30000450 <nand_addr_byte+0x4c>
30000440:	e51b3014 	ldr	r3, [fp, #-20]
30000444:	e2833001 	add	r3, r3, #1	; 0x1
30000448:	e50b3014 	str	r3, [fp, #-20]
3000044c:	eafffff8 	b	30000434 <nand_addr_byte+0x30>
30000450:	e24bd00c 	sub	sp, fp, #12	; 0xc
30000454:	e89da800 	ldmia	sp, {fp, sp, pc}

30000458 <nand_data>:
30000458:	e1a0c00d 	mov	ip, sp
3000045c:	e92dd800 	stmdb	sp!, {fp, ip, lr, pc}
30000460:	e24cb004 	sub	fp, ip, #4	; 0x4
30000464:	e3a0344e 	mov	r3, #1308622848	; 0x4e000000
30000468:	e2833010 	add	r3, r3, #16	; 0x10
3000046c:	e5d33000 	ldrb	r3, [r3]
30000470:	e20330ff 	and	r3, r3, #255	; 0xff
30000474:	e1a00003 	mov	r0, r3
30000478:	e89da800 	ldmia	sp, {fp, sp, pc}

3000047c <nand_w_data>:
3000047c:	e1a0c00d 	mov	ip, sp
30000480:	e92dd800 	stmdb	sp!, {fp, ip, lr, pc}
30000484:	e24cb004 	sub	fp, ip, #4	; 0x4
30000488:	e24dd004 	sub	sp, sp, #4	; 0x4
3000048c:	e1a03000 	mov	r3, r0
30000490:	e54b300d 	strb	r3, [fp, #-13]
30000494:	e3a0344e 	mov	r3, #1308622848	; 0x4e000000
30000498:	e2833010 	add	r3, r3, #16	; 0x10
3000049c:	e55b200d 	ldrb	r2, [fp, #-13]
300004a0:	e5c32000 	strb	r2, [r3]
300004a4:	e89da808 	ldmia	sp, {r3, fp, sp, pc}

300004a8 <nand_chip_id>:
300004a8:	e1a0c00d 	mov	ip, sp
300004ac:	e92dd800 	stmdb	sp!, {fp, ip, lr, pc}
300004b0:	e24cb004 	sub	fp, ip, #4	; 0x4
300004b4:	e24dd008 	sub	sp, sp, #8	; 0x8
300004b8:	e3a03000 	mov	r3, #0	; 0x0
300004bc:	e50b3014 	str	r3, [fp, #-20]
300004c0:	e3a03000 	mov	r3, #0	; 0x0
300004c4:	e54b3010 	strb	r3, [fp, #-16]
300004c8:	ebffffa2 	bl	30000358 <nand_select>
300004cc:	e3a00090 	mov	r0, #144	; 0x90
300004d0:	ebffffb6 	bl	300003b0 <nand_cmd>
300004d4:	e3a00000 	mov	r0, #0	; 0x0
300004d8:	ebffffc9 	bl	30000404 <nand_addr_byte>
300004dc:	ebffffdd 	bl	30000458 <nand_data>
300004e0:	e54b0014 	strb	r0, [fp, #-20]
300004e4:	ebffffdb 	bl	30000458 <nand_data>
300004e8:	e54b0013 	strb	r0, [fp, #-19]
300004ec:	ebffffd9 	bl	30000458 <nand_data>
300004f0:	e54b0012 	strb	r0, [fp, #-18]
300004f4:	ebffffd7 	bl	30000458 <nand_data>
300004f8:	e54b0011 	strb	r0, [fp, #-17]
300004fc:	ebffffd5 	bl	30000458 <nand_data>
30000500:	e54b0010 	strb	r0, [fp, #-16]
30000504:	ebffff9e 	bl	30000384 <nand_deselect>
30000508:	e55b3014 	ldrb	r3, [fp, #-20]
3000050c:	e59f008c 	ldr	r0, [pc, #140]	; 300005a0 <.text+0x5a0>
30000510:	e1a01003 	mov	r1, r3
30000514:	eb0004bb 	bl	30001808 <printf>
30000518:	e55b3013 	ldrb	r3, [fp, #-19]
3000051c:	e59f0080 	ldr	r0, [pc, #128]	; 300005a4 <.text+0x5a4>
30000520:	e1a01003 	mov	r1, r3
30000524:	eb0004b7 	bl	30001808 <printf>
30000528:	e55b3012 	ldrb	r3, [fp, #-18]
3000052c:	e59f0074 	ldr	r0, [pc, #116]	; 300005a8 <.text+0x5a8>
30000530:	e1a01003 	mov	r1, r3
30000534:	eb0004b3 	bl	30001808 <printf>
30000538:	e55b3011 	ldrb	r3, [fp, #-17]
3000053c:	e59f0068 	ldr	r0, [pc, #104]	; 300005ac <.text+0x5ac>
30000540:	e1a01003 	mov	r1, r3
30000544:	eb0004af 	bl	30001808 <printf>
30000548:	e55b3011 	ldrb	r3, [fp, #-17]
3000054c:	e2032003 	and	r2, r3, #3	; 0x3
30000550:	e3a03001 	mov	r3, #1	; 0x1
30000554:	e1a03213 	mov	r3, r3, lsl r2
30000558:	e59f0050 	ldr	r0, [pc, #80]	; 300005b0 <.text+0x5b0>
3000055c:	e1a01003 	mov	r1, r3
30000560:	eb0004a8 	bl	30001808 <printf>
30000564:	e55b3011 	ldrb	r3, [fp, #-17]
30000568:	e1a03223 	mov	r3, r3, lsr #4
3000056c:	e20330ff 	and	r3, r3, #255	; 0xff
30000570:	e2032003 	and	r2, r3, #3	; 0x3
30000574:	e3a03040 	mov	r3, #64	; 0x40
30000578:	e1a03213 	mov	r3, r3, lsl r2
3000057c:	e59f0030 	ldr	r0, [pc, #48]	; 300005b4 <.text+0x5b4>
30000580:	e1a01003 	mov	r1, r3
30000584:	eb00049f 	bl	30001808 <printf>
30000588:	e55b3010 	ldrb	r3, [fp, #-16]
3000058c:	e59f0024 	ldr	r0, [pc, #36]	; 300005b8 <.text+0x5b8>
30000590:	e1a01003 	mov	r1, r3
30000594:	eb00049b 	bl	30001808 <printf>
30000598:	e24bd00c 	sub	sp, fp, #12	; 0xc
3000059c:	e89da800 	ldmia	sp, {fp, sp, pc}
300005a0:	3000619c 	mulcc	r0, ip, r1
300005a4:	300061b4 	strcch	r6, [r0], -r4
300005a8:	300061cc 	andcc	r6, r0, ip, asr #3
300005ac:	300061e4 	andcc	r6, r0, r4, ror #3
300005b0:	300061fc 	strccd	r6, [r0], -ip
300005b4:	30006214 	andcc	r6, r0, r4, lsl r2
300005b8:	3000622c 	andcc	r6, r0, ip, lsr #4

300005bc <nand_read>:
300005bc:	e1a0c00d 	mov	ip, sp
300005c0:	e92dd800 	stmdb	sp!, {fp, ip, lr, pc}
300005c4:	e24cb004 	sub	fp, ip, #4	; 0x4
300005c8:	e24dd018 	sub	sp, sp, #24	; 0x18
300005cc:	e50b0010 	str	r0, [fp, #-16]
300005d0:	e50b1014 	str	r1, [fp, #-20]
300005d4:	e50b2018 	str	r2, [fp, #-24]
300005d8:	e3a03000 	mov	r3, #0	; 0x0
300005dc:	e50b301c 	str	r3, [fp, #-28]
300005e0:	e51b3010 	ldr	r3, [fp, #-16]
300005e4:	e1a035a3 	mov	r3, r3, lsr #11
300005e8:	e50b3020 	str	r3, [fp, #-32]
300005ec:	e51b3010 	ldr	r3, [fp, #-16]
300005f0:	e1a03a83 	mov	r3, r3, lsl #21
300005f4:	e1a03aa3 	mov	r3, r3, lsr #21
300005f8:	e50b3024 	str	r3, [fp, #-36]
300005fc:	ebffff55 	bl	30000358 <nand_select>
30000600:	e51b201c 	ldr	r2, [fp, #-28]
30000604:	e51b3018 	ldr	r3, [fp, #-24]
30000608:	e1520003 	cmp	r2, r3
3000060c:	2a00003d 	bcs	30000708 <nand_read+0x14c>
30000610:	e3a00000 	mov	r0, #0	; 0x0
30000614:	ebffff65 	bl	300003b0 <nand_cmd>
30000618:	e51b3024 	ldr	r3, [fp, #-36]
3000061c:	e20330ff 	and	r3, r3, #255	; 0xff
30000620:	e1a00003 	mov	r0, r3
30000624:	ebffff76 	bl	30000404 <nand_addr_byte>
30000628:	e51b3024 	ldr	r3, [fp, #-36]
3000062c:	e1a03443 	mov	r3, r3, asr #8
30000630:	e20330ff 	and	r3, r3, #255	; 0xff
30000634:	e1a00003 	mov	r0, r3
30000638:	ebffff71 	bl	30000404 <nand_addr_byte>
3000063c:	e51b3020 	ldr	r3, [fp, #-32]
30000640:	e20330ff 	and	r3, r3, #255	; 0xff
30000644:	e1a00003 	mov	r0, r3
30000648:	ebffff6d 	bl	30000404 <nand_addr_byte>
3000064c:	e51b3020 	ldr	r3, [fp, #-32]
30000650:	e1a03443 	mov	r3, r3, asr #8
30000654:	e20330ff 	and	r3, r3, #255	; 0xff
30000658:	e1a00003 	mov	r0, r3
3000065c:	ebffff68 	bl	30000404 <nand_addr_byte>
30000660:	e51b3020 	ldr	r3, [fp, #-32]
30000664:	e1a03843 	mov	r3, r3, asr #16
30000668:	e20330ff 	and	r3, r3, #255	; 0xff
3000066c:	e1a00003 	mov	r0, r3
30000670:	ebffff63 	bl	30000404 <nand_addr_byte>
30000674:	e3a00030 	mov	r0, #48	; 0x30
30000678:	ebffff4c 	bl	300003b0 <nand_cmd>
3000067c:	ebffff1e 	bl	300002fc <wait_ready>
30000680:	e51b2024 	ldr	r2, [fp, #-36]
30000684:	e3a03e7f 	mov	r3, #2032	; 0x7f0
30000688:	e283300f 	add	r3, r3, #15	; 0xf
3000068c:	e1520003 	cmp	r2, r3
30000690:	ca000011 	bgt	300006dc <nand_read+0x120>
30000694:	e51b201c 	ldr	r2, [fp, #-28]
30000698:	e51b3018 	ldr	r3, [fp, #-24]
3000069c:	e1520003 	cmp	r2, r3
300006a0:	2a00000d 	bcs	300006dc <nand_read+0x120>
300006a4:	ebffff6b 	bl	30000458 <nand_data>
300006a8:	e1a0c000 	mov	ip, r0
300006ac:	e24b001c 	sub	r0, fp, #28	; 0x1c
300006b0:	e5902000 	ldr	r2, [r0]
300006b4:	e1a01002 	mov	r1, r2
300006b8:	e51b3014 	ldr	r3, [fp, #-20]
300006bc:	e0813003 	add	r3, r1, r3
300006c0:	e5c3c000 	strb	ip, [r3]
300006c4:	e2822001 	add	r2, r2, #1	; 0x1
300006c8:	e5802000 	str	r2, [r0]
300006cc:	e51b3024 	ldr	r3, [fp, #-36]
300006d0:	e2833001 	add	r3, r3, #1	; 0x1
300006d4:	e50b3024 	str	r3, [fp, #-36]
300006d8:	eaffffe8 	b	30000680 <nand_read+0xc4>
300006dc:	e51b201c 	ldr	r2, [fp, #-28]
300006e0:	e51b3018 	ldr	r3, [fp, #-24]
300006e4:	e1520003 	cmp	r2, r3
300006e8:	1a000000 	bne	300006f0 <nand_read+0x134>
300006ec:	ea000005 	b	30000708 <nand_read+0x14c>
300006f0:	e3a03000 	mov	r3, #0	; 0x0
300006f4:	e50b3024 	str	r3, [fp, #-36]
300006f8:	e51b3020 	ldr	r3, [fp, #-32]
300006fc:	e2833001 	add	r3, r3, #1	; 0x1
30000700:	e50b3020 	str	r3, [fp, #-32]
30000704:	eaffffbd 	b	30000600 <nand_read+0x44>
30000708:	ebffff1d 	bl	30000384 <nand_deselect>
3000070c:	e24bd00c 	sub	sp, fp, #12	; 0xc
30000710:	e89da800 	ldmia	sp, {fp, sp, pc}

30000714 <nand_erase>:
30000714:	e1a0c00d 	mov	ip, sp
30000718:	e92dd800 	stmdb	sp!, {fp, ip, lr, pc}
3000071c:	e24cb004 	sub	fp, ip, #4	; 0x4
30000720:	e24dd010 	sub	sp, sp, #16	; 0x10
30000724:	e50b0010 	str	r0, [fp, #-16]
30000728:	e50b1014 	str	r1, [fp, #-20]
3000072c:	e51b3010 	ldr	r3, [fp, #-16]
30000730:	e1a035a3 	mov	r3, r3, lsr #11
30000734:	e50b3018 	str	r3, [fp, #-24]
30000738:	e51b3010 	ldr	r3, [fp, #-16]
3000073c:	e3c334ff 	bic	r3, r3, #-16777216	; 0xff000000
30000740:	e3c338fe 	bic	r3, r3, #16646144	; 0xfe0000
30000744:	e3530000 	cmp	r3, #0	; 0x0
30000748:	0a000004 	beq	30000760 <nand_erase+0x4c>
3000074c:	e59f00d4 	ldr	r0, [pc, #212]	; 30000828 <.text+0x828>
30000750:	eb00042c 	bl	30001808 <printf>
30000754:	e3e03000 	mvn	r3, #0	; 0x0
30000758:	e50b301c 	str	r3, [fp, #-28]
3000075c:	ea00002e 	b	3000081c <nand_erase+0x108>
30000760:	e51b3014 	ldr	r3, [fp, #-20]
30000764:	e3c334ff 	bic	r3, r3, #-16777216	; 0xff000000
30000768:	e3c338fe 	bic	r3, r3, #16646144	; 0xfe0000
3000076c:	e3530000 	cmp	r3, #0	; 0x0
30000770:	0a000004 	beq	30000788 <nand_erase+0x74>
30000774:	e59f00b0 	ldr	r0, [pc, #176]	; 3000082c <.text+0x82c>
30000778:	eb000422 	bl	30001808 <printf>
3000077c:	e3e03000 	mvn	r3, #0	; 0x0
30000780:	e50b301c 	str	r3, [fp, #-28]
30000784:	ea000024 	b	3000081c <nand_erase+0x108>
30000788:	ebfffef2 	bl	30000358 <nand_select>
3000078c:	e51b3010 	ldr	r3, [fp, #-16]
30000790:	e1a035a3 	mov	r3, r3, lsr #11
30000794:	e50b3018 	str	r3, [fp, #-24]
30000798:	e3a00060 	mov	r0, #96	; 0x60
3000079c:	ebffff03 	bl	300003b0 <nand_cmd>
300007a0:	e51b3018 	ldr	r3, [fp, #-24]
300007a4:	e20330ff 	and	r3, r3, #255	; 0xff
300007a8:	e1a00003 	mov	r0, r3
300007ac:	ebffff14 	bl	30000404 <nand_addr_byte>
300007b0:	e51b3018 	ldr	r3, [fp, #-24]
300007b4:	e1a03443 	mov	r3, r3, asr #8
300007b8:	e20330ff 	and	r3, r3, #255	; 0xff
300007bc:	e1a00003 	mov	r0, r3
300007c0:	ebffff0f 	bl	30000404 <nand_addr_byte>
300007c4:	e51b3018 	ldr	r3, [fp, #-24]
300007c8:	e1a03843 	mov	r3, r3, asr #16
300007cc:	e20330ff 	and	r3, r3, #255	; 0xff
300007d0:	e1a00003 	mov	r0, r3
300007d4:	ebffff0a 	bl	30000404 <nand_addr_byte>
300007d8:	e3a000d0 	mov	r0, #208	; 0xd0
300007dc:	ebfffef3 	bl	300003b0 <nand_cmd>
300007e0:	ebfffec5 	bl	300002fc <wait_ready>
300007e4:	e51b3014 	ldr	r3, [fp, #-20]
300007e8:	e2433802 	sub	r3, r3, #131072	; 0x20000
300007ec:	e50b3014 	str	r3, [fp, #-20]
300007f0:	e51b3014 	ldr	r3, [fp, #-20]
300007f4:	e3530000 	cmp	r3, #0	; 0x0
300007f8:	1a000000 	bne	30000800 <nand_erase+0xec>
300007fc:	ea000003 	b	30000810 <nand_erase+0xfc>
30000800:	e51b3010 	ldr	r3, [fp, #-16]
30000804:	e2833802 	add	r3, r3, #131072	; 0x20000
30000808:	e50b3010 	str	r3, [fp, #-16]
3000080c:	eaffffde 	b	3000078c <nand_erase+0x78>
30000810:	ebfffedb 	bl	30000384 <nand_deselect>
30000814:	e3a03000 	mov	r3, #0	; 0x0
30000818:	e50b301c 	str	r3, [fp, #-28]
3000081c:	e51b001c 	ldr	r0, [fp, #-28]
30000820:	e24bd00c 	sub	sp, fp, #12	; 0xc
30000824:	e89da800 	ldmia	sp, {fp, sp, pc}
30000828:	30006244 	andcc	r6, r0, r4, asr #4
3000082c:	30006270 	andcc	r6, r0, r0, ror r2

30000830 <nand_write>:
30000830:	e1a0c00d 	mov	ip, sp
30000834:	e92dd800 	stmdb	sp!, {fp, ip, lr, pc}
30000838:	e24cb004 	sub	fp, ip, #4	; 0x4
3000083c:	e24dd018 	sub	sp, sp, #24	; 0x18
30000840:	e50b0010 	str	r0, [fp, #-16]
30000844:	e50b1014 	str	r1, [fp, #-20]
30000848:	e50b2018 	str	r2, [fp, #-24]
3000084c:	e51b3010 	ldr	r3, [fp, #-16]
30000850:	e1a035a3 	mov	r3, r3, lsr #11
30000854:	e50b301c 	str	r3, [fp, #-28]
30000858:	e51b3010 	ldr	r3, [fp, #-16]
3000085c:	e1a03a83 	mov	r3, r3, lsl #21
30000860:	e1a03aa3 	mov	r3, r3, lsr #21
30000864:	e50b3020 	str	r3, [fp, #-32]
30000868:	e3a03000 	mov	r3, #0	; 0x0
3000086c:	e50b3024 	str	r3, [fp, #-36]
30000870:	ebfffeb8 	bl	30000358 <nand_select>
30000874:	e3a00080 	mov	r0, #128	; 0x80
30000878:	ebfffecc 	bl	300003b0 <nand_cmd>
3000087c:	e51b3020 	ldr	r3, [fp, #-32]
30000880:	e20330ff 	and	r3, r3, #255	; 0xff
30000884:	e1a00003 	mov	r0, r3
30000888:	ebfffedd 	bl	30000404 <nand_addr_byte>
3000088c:	e51b3020 	ldr	r3, [fp, #-32]
30000890:	e1a03443 	mov	r3, r3, asr #8
30000894:	e20330ff 	and	r3, r3, #255	; 0xff
30000898:	e1a00003 	mov	r0, r3
3000089c:	ebfffed8 	bl	30000404 <nand_addr_byte>
300008a0:	e51b301c 	ldr	r3, [fp, #-28]
300008a4:	e20330ff 	and	r3, r3, #255	; 0xff
300008a8:	e1a00003 	mov	r0, r3
300008ac:	ebfffed4 	bl	30000404 <nand_addr_byte>
300008b0:	e51b301c 	ldr	r3, [fp, #-28]
300008b4:	e1a03443 	mov	r3, r3, asr #8
300008b8:	e20330ff 	and	r3, r3, #255	; 0xff
300008bc:	e1a00003 	mov	r0, r3
300008c0:	ebfffecf 	bl	30000404 <nand_addr_byte>
300008c4:	e51b301c 	ldr	r3, [fp, #-28]
300008c8:	e1a03843 	mov	r3, r3, asr #16
300008cc:	e20330ff 	and	r3, r3, #255	; 0xff
300008d0:	e1a00003 	mov	r0, r3
300008d4:	ebfffeca 	bl	30000404 <nand_addr_byte>
300008d8:	e51b2020 	ldr	r2, [fp, #-32]
300008dc:	e3a03e7f 	mov	r3, #2032	; 0x7f0
300008e0:	e283300f 	add	r3, r3, #15	; 0xf
300008e4:	e1520003 	cmp	r2, r3
300008e8:	ca00000e 	bgt	30000928 <nand_write+0xf8>
300008ec:	e51b2024 	ldr	r2, [fp, #-36]
300008f0:	e51b3018 	ldr	r3, [fp, #-24]
300008f4:	e1520003 	cmp	r2, r3
300008f8:	2a00000a 	bcs	30000928 <nand_write+0xf8>
300008fc:	e24b0024 	sub	r0, fp, #36	; 0x24
30000900:	e5902000 	ldr	r2, [r0]
30000904:	e1a01002 	mov	r1, r2
30000908:	e51b3014 	ldr	r3, [fp, #-20]
3000090c:	e0813003 	add	r3, r1, r3
30000910:	e5d33000 	ldrb	r3, [r3]
30000914:	e2822001 	add	r2, r2, #1	; 0x1
30000918:	e5802000 	str	r2, [r0]
3000091c:	e1a00003 	mov	r0, r3
30000920:	ebfffed5 	bl	3000047c <nand_w_data>
30000924:	eaffffeb 	b	300008d8 <nand_write+0xa8>
30000928:	e3a00010 	mov	r0, #16	; 0x10
3000092c:	ebfffe9f 	bl	300003b0 <nand_cmd>
30000930:	ebfffe71 	bl	300002fc <wait_ready>
30000934:	e51b2024 	ldr	r2, [fp, #-36]
30000938:	e51b3018 	ldr	r3, [fp, #-24]
3000093c:	e1520003 	cmp	r2, r3
30000940:	1a000000 	bne	30000948 <nand_write+0x118>
30000944:	ea000005 	b	30000960 <nand_write+0x130>
30000948:	e3a03000 	mov	r3, #0	; 0x0
3000094c:	e50b3020 	str	r3, [fp, #-32]
30000950:	e51b301c 	ldr	r3, [fp, #-28]
30000954:	e2833001 	add	r3, r3, #1	; 0x1
30000958:	e50b301c 	str	r3, [fp, #-28]
3000095c:	eaffffc4 	b	30000874 <nand_write+0x44>
30000960:	ebfffe87 	bl	30000384 <nand_deselect>
30000964:	e24bd00c 	sub	sp, fp, #12	; 0xc
30000968:	e89da800 	ldmia	sp, {fp, sp, pc}

3000096c <do_read_nand_flash>:
3000096c:	e1a0c00d 	mov	ip, sp
30000970:	e92dd800 	stmdb	sp!, {fp, ip, lr, pc}
30000974:	e24cb004 	sub	fp, ip, #4	; 0x4
30000978:	e24dd064 	sub	sp, sp, #100	; 0x64
3000097c:	e59f0164 	ldr	r0, [pc, #356]	; 30000ae8 <.text+0xae8>
30000980:	eb0003a0 	bl	30001808 <printf>
30000984:	eb00023c 	bl	3000127c <get_uint>
30000988:	e50b0010 	str	r0, [fp, #-16]
3000098c:	e24b3070 	sub	r3, fp, #112	; 0x70
30000990:	e51b0010 	ldr	r0, [fp, #-16]
30000994:	e1a01003 	mov	r1, r3
30000998:	e3a02040 	mov	r2, #64	; 0x40
3000099c:	ebffff06 	bl	300005bc <nand_read>
300009a0:	e24b3070 	sub	r3, fp, #112	; 0x70
300009a4:	e50b3014 	str	r3, [fp, #-20]
300009a8:	e59f013c 	ldr	r0, [pc, #316]	; 30000aec <.text+0xaec>
300009ac:	eb000395 	bl	30001808 <printf>
300009b0:	e3a03000 	mov	r3, #0	; 0x0
300009b4:	e50b3018 	str	r3, [fp, #-24]
300009b8:	e51b3018 	ldr	r3, [fp, #-24]
300009bc:	e3530003 	cmp	r3, #3	; 0x3
300009c0:	ca000046 	bgt	30000ae0 <do_read_nand_flash+0x174>
300009c4:	e3a03000 	mov	r3, #0	; 0x0
300009c8:	e50b301c 	str	r3, [fp, #-28]
300009cc:	e51b301c 	ldr	r3, [fp, #-28]
300009d0:	e353000f 	cmp	r3, #15	; 0xf
300009d4:	ca000014 	bgt	30000a2c <do_read_nand_flash+0xc0>
300009d8:	e24b2014 	sub	r2, fp, #20	; 0x14
300009dc:	e5923000 	ldr	r3, [r2]
300009e0:	e5d31000 	ldrb	r1, [r3]
300009e4:	e2833001 	add	r3, r3, #1	; 0x1
300009e8:	e5823000 	str	r3, [r2]
300009ec:	e54b101d 	strb	r1, [fp, #-29]
300009f0:	e3e02023 	mvn	r2, #35	; 0x23
300009f4:	e51b301c 	ldr	r3, [fp, #-28]
300009f8:	e24b100c 	sub	r1, fp, #12	; 0xc
300009fc:	e0813003 	add	r3, r1, r3
30000a00:	e0832002 	add	r2, r3, r2
30000a04:	e55b301d 	ldrb	r3, [fp, #-29]
30000a08:	e5c23000 	strb	r3, [r2]
30000a0c:	e55b301d 	ldrb	r3, [fp, #-29]
30000a10:	e59f00d8 	ldr	r0, [pc, #216]	; 30000af0 <.text+0xaf0>
30000a14:	e1a01003 	mov	r1, r3
30000a18:	eb00037a 	bl	30001808 <printf>
30000a1c:	e51b301c 	ldr	r3, [fp, #-28]
30000a20:	e2833001 	add	r3, r3, #1	; 0x1
30000a24:	e50b301c 	str	r3, [fp, #-28]
30000a28:	eaffffe7 	b	300009cc <do_read_nand_flash+0x60>
30000a2c:	e59f00c0 	ldr	r0, [pc, #192]	; 30000af4 <.text+0xaf4>
30000a30:	eb000374 	bl	30001808 <printf>
30000a34:	e3a03000 	mov	r3, #0	; 0x0
30000a38:	e50b301c 	str	r3, [fp, #-28]
30000a3c:	e51b301c 	ldr	r3, [fp, #-28]
30000a40:	e353000f 	cmp	r3, #15	; 0xf
30000a44:	ca00001f 	bgt	30000ac8 <do_read_nand_flash+0x15c>
30000a48:	e3e02023 	mvn	r2, #35	; 0x23
30000a4c:	e51b301c 	ldr	r3, [fp, #-28]
30000a50:	e24b100c 	sub	r1, fp, #12	; 0xc
30000a54:	e0813003 	add	r3, r1, r3
30000a58:	e0833002 	add	r3, r3, r2
30000a5c:	e5d33000 	ldrb	r3, [r3]
30000a60:	e353001f 	cmp	r3, #31	; 0x1f
30000a64:	9a000008 	bls	30000a8c <do_read_nand_flash+0x120>
30000a68:	e3e02023 	mvn	r2, #35	; 0x23
30000a6c:	e51b301c 	ldr	r3, [fp, #-28]
30000a70:	e24b100c 	sub	r1, fp, #12	; 0xc
30000a74:	e0813003 	add	r3, r1, r3
30000a78:	e0833002 	add	r3, r3, r2
30000a7c:	e5d33000 	ldrb	r3, [r3]
30000a80:	e353007e 	cmp	r3, #126	; 0x7e
30000a84:	8a000000 	bhi	30000a8c <do_read_nand_flash+0x120>
30000a88:	ea000002 	b	30000a98 <do_read_nand_flash+0x12c>
30000a8c:	e3a0002e 	mov	r0, #46	; 0x2e
30000a90:	eb000cbf 	bl	30003d94 <putchar>
30000a94:	ea000007 	b	30000ab8 <do_read_nand_flash+0x14c>
30000a98:	e3e02023 	mvn	r2, #35	; 0x23
30000a9c:	e51b301c 	ldr	r3, [fp, #-28]
30000aa0:	e24b100c 	sub	r1, fp, #12	; 0xc
30000aa4:	e0813003 	add	r3, r1, r3
30000aa8:	e0833002 	add	r3, r3, r2
30000aac:	e5d33000 	ldrb	r3, [r3]
30000ab0:	e1a00003 	mov	r0, r3
30000ab4:	eb000cb6 	bl	30003d94 <putchar>
30000ab8:	e51b301c 	ldr	r3, [fp, #-28]
30000abc:	e2833001 	add	r3, r3, #1	; 0x1
30000ac0:	e50b301c 	str	r3, [fp, #-28]
30000ac4:	eaffffdc 	b	30000a3c <do_read_nand_flash+0xd0>
30000ac8:	e59f0028 	ldr	r0, [pc, #40]	; 30000af8 <.text+0xaf8>
30000acc:	eb00034d 	bl	30001808 <printf>
30000ad0:	e51b3018 	ldr	r3, [fp, #-24]
30000ad4:	e2833001 	add	r3, r3, #1	; 0x1
30000ad8:	e50b3018 	str	r3, [fp, #-24]
30000adc:	eaffffb5 	b	300009b8 <do_read_nand_flash+0x4c>
30000ae0:	e24bd00c 	sub	sp, fp, #12	; 0xc
30000ae4:	e89da800 	ldmia	sp, {fp, sp, pc}
30000ae8:	3000629c 	mulcc	r0, ip, r2
30000aec:	300062b8 	strcch	r6, [r0], -r8
30000af0:	300062c4 	andcc	r6, r0, r4, asr #5
30000af4:	300062cc 	andcc	r6, r0, ip, asr #5
30000af8:	300062d4 	ldrccd	r6, [r0], -r4

30000afc <do_erase_nand_flash>:
30000afc:	e1a0c00d 	mov	ip, sp
30000b00:	e92dd800 	stmdb	sp!, {fp, ip, lr, pc}
30000b04:	e24cb004 	sub	fp, ip, #4	; 0x4
30000b08:	e24dd004 	sub	sp, sp, #4	; 0x4
30000b0c:	e59f0020 	ldr	r0, [pc, #32]	; 30000b34 <.text+0xb34>
30000b10:	eb00033c 	bl	30001808 <printf>
30000b14:	eb0001d8 	bl	3000127c <get_uint>
30000b18:	e50b0010 	str	r0, [fp, #-16]
30000b1c:	e59f0014 	ldr	r0, [pc, #20]	; 30000b38 <.text+0xb38>
30000b20:	eb000338 	bl	30001808 <printf>
30000b24:	e51b0010 	ldr	r0, [fp, #-16]
30000b28:	e3a01802 	mov	r1, #131072	; 0x20000
30000b2c:	ebfffef8 	bl	30000714 <nand_erase>
30000b30:	e89da808 	ldmia	sp, {r3, fp, sp, pc}
30000b34:	300062d8 	ldrccd	r6, [r0], -r8
30000b38:	30006300 	andcc	r6, r0, r0, lsl #6

30000b3c <strlen>:
30000b3c:	e1a0c00d 	mov	ip, sp
30000b40:	e92dd800 	stmdb	sp!, {fp, ip, lr, pc}
30000b44:	e24cb004 	sub	fp, ip, #4	; 0x4
30000b48:	e24dd008 	sub	sp, sp, #8	; 0x8
30000b4c:	e50b0010 	str	r0, [fp, #-16]
30000b50:	e51b3010 	ldr	r3, [fp, #-16]
30000b54:	e50b3014 	str	r3, [fp, #-20]
30000b58:	e24b2014 	sub	r2, fp, #20	; 0x14
30000b5c:	e5923000 	ldr	r3, [r2]
30000b60:	e5d31000 	ldrb	r1, [r3]
30000b64:	e2833001 	add	r3, r3, #1	; 0x1
30000b68:	e5823000 	str	r3, [r2]
30000b6c:	e20130ff 	and	r3, r1, #255	; 0xff
30000b70:	e3530000 	cmp	r3, #0	; 0x0
30000b74:	0a000000 	beq	30000b7c <strlen+0x40>
30000b78:	eafffff6 	b	30000b58 <strlen+0x1c>
30000b7c:	e51b2014 	ldr	r2, [fp, #-20]
30000b80:	e51b3010 	ldr	r3, [fp, #-16]
30000b84:	e0633002 	rsb	r3, r3, r2
30000b88:	e2433001 	sub	r3, r3, #1	; 0x1
30000b8c:	e1a00003 	mov	r0, r3
30000b90:	e24bd00c 	sub	sp, fp, #12	; 0xc
30000b94:	e89da800 	ldmia	sp, {fp, sp, pc}

30000b98 <do_write_nand_flash>:
30000b98:	e1a0c00d 	mov	ip, sp
30000b9c:	e92dd800 	stmdb	sp!, {fp, ip, lr, pc}
30000ba0:	e24cb004 	sub	fp, ip, #4	; 0x4
30000ba4:	e24dd074 	sub	sp, sp, #116	; 0x74
30000ba8:	e59f0050 	ldr	r0, [pc, #80]	; 30000c00 <.text+0xc00>
30000bac:	eb000315 	bl	30001808 <printf>
30000bb0:	eb0001b1 	bl	3000127c <get_uint>
30000bb4:	e50b0010 	str	r0, [fp, #-16]
30000bb8:	e59f0044 	ldr	r0, [pc, #68]	; 30000c04 <.text+0xc04>
30000bbc:	eb000311 	bl	30001808 <printf>
30000bc0:	e24b3074 	sub	r3, fp, #116	; 0x74
30000bc4:	e1a00003 	mov	r0, r3
30000bc8:	eb000168 	bl	30001170 <gets>
30000bcc:	e59f0034 	ldr	r0, [pc, #52]	; 30000c08 <.text+0xc08>
30000bd0:	eb00030c 	bl	30001808 <printf>
30000bd4:	e24b3074 	sub	r3, fp, #116	; 0x74
30000bd8:	e1a00003 	mov	r0, r3
30000bdc:	ebffffd6 	bl	30000b3c <strlen>
30000be0:	e1a03000 	mov	r3, r0
30000be4:	e2832001 	add	r2, r3, #1	; 0x1
30000be8:	e24b3074 	sub	r3, fp, #116	; 0x74
30000bec:	e51b0010 	ldr	r0, [fp, #-16]
30000bf0:	e1a01003 	mov	r1, r3
30000bf4:	ebffff0d 	bl	30000830 <nand_write>
30000bf8:	e24bd00c 	sub	sp, fp, #12	; 0xc
30000bfc:	e89da800 	ldmia	sp, {fp, sp, pc}
30000c00:	30006310 	andcc	r6, r0, r0, lsl r3
30000c04:	30006338 	andcc	r6, r0, r8, lsr r3
30000c08:	30006354 	andcc	r6, r0, r4, asr r3

30000c0c <nand_flash_test>:
30000c0c:	e1a0c00d 	mov	ip, sp
30000c10:	e92dd800 	stmdb	sp!, {fp, ip, lr, pc}
30000c14:	e24cb004 	sub	fp, ip, #4	; 0x4
30000c18:	e24dd004 	sub	sp, sp, #4	; 0x4
30000c1c:	e59f0150 	ldr	r0, [pc, #336]	; 30000d74 <.text+0xd74>
30000c20:	eb0002f8 	bl	30001808 <printf>
30000c24:	e59f014c 	ldr	r0, [pc, #332]	; 30000d78 <.text+0xd78>
30000c28:	eb0002f6 	bl	30001808 <printf>
30000c2c:	e59f0148 	ldr	r0, [pc, #328]	; 30000d7c <.text+0xd7c>
30000c30:	eb0002f4 	bl	30001808 <printf>
30000c34:	e59f0144 	ldr	r0, [pc, #324]	; 30000d80 <.text+0xd80>
30000c38:	eb0002f2 	bl	30001808 <printf>
30000c3c:	e59f0140 	ldr	r0, [pc, #320]	; 30000d84 <.text+0xd84>
30000c40:	eb0002f0 	bl	30001808 <printf>
30000c44:	e59f013c 	ldr	r0, [pc, #316]	; 30000d88 <.text+0xd88>
30000c48:	eb0002ee 	bl	30001808 <printf>
30000c4c:	e59f0138 	ldr	r0, [pc, #312]	; 30000d8c <.text+0xd8c>
30000c50:	eb0002ec 	bl	30001808 <printf>
30000c54:	eb000c6f 	bl	30003e18 <getchar>
30000c58:	e1a03000 	mov	r3, r0
30000c5c:	e54b300d 	strb	r3, [fp, #-13]
30000c60:	e55b300d 	ldrb	r3, [fp, #-13]
30000c64:	e59f0124 	ldr	r0, [pc, #292]	; 30000d90 <.text+0xd90>
30000c68:	e1a01003 	mov	r1, r3
30000c6c:	eb0002e5 	bl	30001808 <printf>
30000c70:	e55b300d 	ldrb	r3, [fp, #-13]
30000c74:	e2433045 	sub	r3, r3, #69	; 0x45
30000c78:	e3530032 	cmp	r3, #50	; 0x32
30000c7c:	979ff103 	ldrls	pc, [pc, r3, lsl #2]
30000c80:	eaffffe5 	b	30000c1c <nand_flash_test+0x10>
30000c84:	30000d58 	andcc	r0, r0, r8, asr sp
30000c88:	30000c1c 	andcc	r0, r0, ip, lsl ip
30000c8c:	30000c1c 	andcc	r0, r0, ip, lsl ip
30000c90:	30000c1c 	andcc	r0, r0, ip, lsl ip
30000c94:	30000c1c 	andcc	r0, r0, ip, lsl ip
30000c98:	30000c1c 	andcc	r0, r0, ip, lsl ip
30000c9c:	30000c1c 	andcc	r0, r0, ip, lsl ip
30000ca0:	30000c1c 	andcc	r0, r0, ip, lsl ip
30000ca4:	30000c1c 	andcc	r0, r0, ip, lsl ip
30000ca8:	30000c1c 	andcc	r0, r0, ip, lsl ip
30000cac:	30000c1c 	andcc	r0, r0, ip, lsl ip
30000cb0:	30000c1c 	andcc	r0, r0, ip, lsl ip
30000cb4:	30000d70 	andcc	r0, r0, r0, ror sp
30000cb8:	30000d68 	andcc	r0, r0, r8, ror #26
30000cbc:	30000d50 	andcc	r0, r0, r0, asr sp
30000cc0:	30000c1c 	andcc	r0, r0, ip, lsl ip
30000cc4:	30000c1c 	andcc	r0, r0, ip, lsl ip
30000cc8:	30000c1c 	andcc	r0, r0, ip, lsl ip
30000ccc:	30000d60 	andcc	r0, r0, r0, ror #26
30000cd0:	30000c1c 	andcc	r0, r0, ip, lsl ip
30000cd4:	30000c1c 	andcc	r0, r0, ip, lsl ip
30000cd8:	30000c1c 	andcc	r0, r0, ip, lsl ip
30000cdc:	30000c1c 	andcc	r0, r0, ip, lsl ip
30000ce0:	30000c1c 	andcc	r0, r0, ip, lsl ip
30000ce4:	30000c1c 	andcc	r0, r0, ip, lsl ip
30000ce8:	30000c1c 	andcc	r0, r0, ip, lsl ip
30000cec:	30000c1c 	andcc	r0, r0, ip, lsl ip
30000cf0:	30000c1c 	andcc	r0, r0, ip, lsl ip
30000cf4:	30000c1c 	andcc	r0, r0, ip, lsl ip
30000cf8:	30000c1c 	andcc	r0, r0, ip, lsl ip
30000cfc:	30000c1c 	andcc	r0, r0, ip, lsl ip
30000d00:	30000c1c 	andcc	r0, r0, ip, lsl ip
30000d04:	30000d58 	andcc	r0, r0, r8, asr sp
30000d08:	30000c1c 	andcc	r0, r0, ip, lsl ip
30000d0c:	30000c1c 	andcc	r0, r0, ip, lsl ip
30000d10:	30000c1c 	andcc	r0, r0, ip, lsl ip
30000d14:	30000c1c 	andcc	r0, r0, ip, lsl ip
30000d18:	30000c1c 	andcc	r0, r0, ip, lsl ip
30000d1c:	30000c1c 	andcc	r0, r0, ip, lsl ip
30000d20:	30000c1c 	andcc	r0, r0, ip, lsl ip
30000d24:	30000c1c 	andcc	r0, r0, ip, lsl ip
30000d28:	30000c1c 	andcc	r0, r0, ip, lsl ip
30000d2c:	30000c1c 	andcc	r0, r0, ip, lsl ip
30000d30:	30000c1c 	andcc	r0, r0, ip, lsl ip
30000d34:	30000d70 	andcc	r0, r0, r0, ror sp
30000d38:	30000d68 	andcc	r0, r0, r8, ror #26
30000d3c:	30000d50 	andcc	r0, r0, r0, asr sp
30000d40:	30000c1c 	andcc	r0, r0, ip, lsl ip
30000d44:	30000c1c 	andcc	r0, r0, ip, lsl ip
30000d48:	30000c1c 	andcc	r0, r0, ip, lsl ip
30000d4c:	30000d60 	andcc	r0, r0, r0, ror #26
30000d50:	ebfffdd4 	bl	300004a8 <nand_chip_id>
30000d54:	eaffffb0 	b	30000c1c <nand_flash_test+0x10>
30000d58:	ebffff67 	bl	30000afc <do_erase_nand_flash>
30000d5c:	eaffffae 	b	30000c1c <nand_flash_test+0x10>
30000d60:	ebffff8c 	bl	30000b98 <do_write_nand_flash>
30000d64:	eaffffac 	b	30000c1c <nand_flash_test+0x10>
30000d68:	ebfffeff 	bl	3000096c <do_read_nand_flash>
30000d6c:	eaffffaa 	b	30000c1c <nand_flash_test+0x10>
30000d70:	e89da808 	ldmia	sp, {r3, fp, sp, pc}
30000d74:	30006364 	andcc	r6, r0, r4, ror #6
30000d78:	30006388 	andcc	r6, r0, r8, lsl #7
30000d7c:	300063a0 	andcc	r6, r0, r0, lsr #7
30000d80:	300063b8 	strcch	r6, [r0], -r8
30000d84:	300063d0 	ldrccd	r6, [r0], -r0
30000d88:	300063e8 	andcc	r6, r0, r8, ror #7
30000d8c:	300063f4 	strccd	r6, [r0], -r4
30000d90:	30006408 	andcc	r6, r0, r8, lsl #8

30000d94 <sdram_config>:
30000d94:	e1a0c00d 	mov	ip, sp
30000d98:	e92dd800 	stmdb	sp!, {fp, ip, lr, pc}
30000d9c:	e24cb004 	sub	fp, ip, #4	; 0x4
30000da0:	e3a02312 	mov	r2, #1207959552	; 0x48000000
30000da4:	e3a03422 	mov	r3, #570425344	; 0x22000000
30000da8:	e5823000 	str	r3, [r2]
30000dac:	e3a02312 	mov	r2, #1207959552	; 0x48000000
30000db0:	e282201c 	add	r2, r2, #28	; 0x1c
30000db4:	e3a03906 	mov	r3, #98304	; 0x18000
30000db8:	e2833001 	add	r3, r3, #1	; 0x1
30000dbc:	e5823000 	str	r3, [r2]
30000dc0:	e3a02312 	mov	r2, #1207959552	; 0x48000000
30000dc4:	e2822020 	add	r2, r2, #32	; 0x20
30000dc8:	e3a03906 	mov	r3, #98304	; 0x18000
30000dcc:	e2833001 	add	r3, r3, #1	; 0x1
30000dd0:	e5823000 	str	r3, [r2]
30000dd4:	e3a02312 	mov	r2, #1207959552	; 0x48000000
30000dd8:	e2822024 	add	r2, r2, #36	; 0x24
30000ddc:	e3a03721 	mov	r3, #8650752	; 0x840000
30000de0:	e2833e4f 	add	r3, r3, #1264	; 0x4f0
30000de4:	e2833005 	add	r3, r3, #5	; 0x5
30000de8:	e5823000 	str	r3, [r2]
30000dec:	e3a03312 	mov	r3, #1207959552	; 0x48000000
30000df0:	e2833028 	add	r3, r3, #40	; 0x28
30000df4:	e3a020b1 	mov	r2, #177	; 0xb1
30000df8:	e5832000 	str	r2, [r3]
30000dfc:	e3a03312 	mov	r3, #1207959552	; 0x48000000
30000e00:	e283302c 	add	r3, r3, #44	; 0x2c
30000e04:	e3a02020 	mov	r2, #32	; 0x20
30000e08:	e5832000 	str	r2, [r3]
30000e0c:	e3a03312 	mov	r3, #1207959552	; 0x48000000
30000e10:	e2833030 	add	r3, r3, #48	; 0x30
30000e14:	e3a02020 	mov	r2, #32	; 0x20
30000e18:	e5832000 	str	r2, [r3]
30000e1c:	e89da800 	ldmia	sp, {fp, sp, pc}

30000e20 <sdram_text>:
30000e20:	e1a0c00d 	mov	ip, sp
30000e24:	e92dd800 	stmdb	sp!, {fp, ip, lr, pc}
30000e28:	e24cb004 	sub	fp, ip, #4	; 0x4
30000e2c:	e24dd00c 	sub	sp, sp, #12	; 0xc
30000e30:	e3a03203 	mov	r3, #805306368	; 0x30000000
30000e34:	e50b3010 	str	r3, [fp, #-16]
30000e38:	e3a03000 	mov	r3, #0	; 0x0
30000e3c:	e50b3014 	str	r3, [fp, #-20]
30000e40:	e3a03000 	mov	r3, #0	; 0x0
30000e44:	e50b3014 	str	r3, [fp, #-20]
30000e48:	e51b3014 	ldr	r3, [fp, #-20]
30000e4c:	e3530009 	cmp	r3, #9	; 0x9
30000e50:	ca000008 	bgt	30000e78 <sdram_text+0x58>
30000e54:	e51b2010 	ldr	r2, [fp, #-16]
30000e58:	e51b3014 	ldr	r3, [fp, #-20]
30000e5c:	e0822003 	add	r2, r2, r3
30000e60:	e3e03077 	mvn	r3, #119	; 0x77
30000e64:	e5c23000 	strb	r3, [r2]
30000e68:	e51b3014 	ldr	r3, [fp, #-20]
30000e6c:	e2833001 	add	r3, r3, #1	; 0x1
30000e70:	e50b3014 	str	r3, [fp, #-20]
30000e74:	eafffff3 	b	30000e48 <sdram_text+0x28>
30000e78:	e3a03000 	mov	r3, #0	; 0x0
30000e7c:	e50b3014 	str	r3, [fp, #-20]
30000e80:	e51b3014 	ldr	r3, [fp, #-20]
30000e84:	e3530009 	cmp	r3, #9	; 0x9
30000e88:	ca00000c 	bgt	30000ec0 <sdram_text+0xa0>
30000e8c:	e51b2010 	ldr	r2, [fp, #-16]
30000e90:	e51b3014 	ldr	r3, [fp, #-20]
30000e94:	e0823003 	add	r3, r2, r3
30000e98:	e5d33000 	ldrb	r3, [r3]
30000e9c:	e3530088 	cmp	r3, #136	; 0x88
30000ea0:	0a000002 	beq	30000eb0 <sdram_text+0x90>
30000ea4:	e3e03000 	mvn	r3, #0	; 0x0
30000ea8:	e50b3018 	str	r3, [fp, #-24]
30000eac:	ea000003 	b	30000ec0 <sdram_text+0xa0>
30000eb0:	e51b3014 	ldr	r3, [fp, #-20]
30000eb4:	e2833001 	add	r3, r3, #1	; 0x1
30000eb8:	e50b3014 	str	r3, [fp, #-20]
30000ebc:	eaffffef 	b	30000e80 <sdram_text+0x60>
30000ec0:	e51b0018 	ldr	r0, [fp, #-24]
30000ec4:	e24bd00c 	sub	sp, fp, #12	; 0xc
30000ec8:	e89da800 	ldmia	sp, {fp, sp, pc}

30000ecc <simple_strtoul>:
30000ecc:	e1a0c00d 	mov	ip, sp
30000ed0:	e92dd800 	stmdb	sp!, {fp, ip, lr, pc}
30000ed4:	e24cb004 	sub	fp, ip, #4	; 0x4
30000ed8:	e24dd018 	sub	sp, sp, #24	; 0x18
30000edc:	e50b0010 	str	r0, [fp, #-16]
30000ee0:	e50b1014 	str	r1, [fp, #-20]
30000ee4:	e50b2018 	str	r2, [fp, #-24]
30000ee8:	e3a03000 	mov	r3, #0	; 0x0
30000eec:	e50b301c 	str	r3, [fp, #-28]
30000ef0:	e51b3010 	ldr	r3, [fp, #-16]
30000ef4:	e5d33000 	ldrb	r3, [r3]
30000ef8:	e3530030 	cmp	r3, #48	; 0x30
30000efc:	1a00001e 	bne	30000f7c <simple_strtoul+0xb0>
30000f00:	e51b3010 	ldr	r3, [fp, #-16]
30000f04:	e2833001 	add	r3, r3, #1	; 0x1
30000f08:	e50b3010 	str	r3, [fp, #-16]
30000f0c:	e51b3010 	ldr	r3, [fp, #-16]
30000f10:	e5d33000 	ldrb	r3, [r3]
30000f14:	e3530078 	cmp	r3, #120	; 0x78
30000f18:	0a000004 	beq	30000f30 <simple_strtoul+0x64>
30000f1c:	e51b3010 	ldr	r3, [fp, #-16]
30000f20:	e5d33000 	ldrb	r3, [r3]
30000f24:	e3530058 	cmp	r3, #88	; 0x58
30000f28:	0a000000 	beq	30000f30 <simple_strtoul+0x64>
30000f2c:	ea00000d 	b	30000f68 <simple_strtoul+0x9c>
30000f30:	e59f1170 	ldr	r1, [pc, #368]	; 300010a8 <.text+0x10a8>
30000f34:	e3a02001 	mov	r2, #1	; 0x1
30000f38:	e51b3010 	ldr	r3, [fp, #-16]
30000f3c:	e0823003 	add	r3, r2, r3
30000f40:	e5d33000 	ldrb	r3, [r3]
30000f44:	e7d13003 	ldrb	r3, [r1, r3]
30000f48:	e2033044 	and	r3, r3, #68	; 0x44
30000f4c:	e3530000 	cmp	r3, #0	; 0x0
30000f50:	0a000004 	beq	30000f68 <simple_strtoul+0x9c>
30000f54:	e3a03010 	mov	r3, #16	; 0x10
30000f58:	e50b3018 	str	r3, [fp, #-24]
30000f5c:	e51b3010 	ldr	r3, [fp, #-16]
30000f60:	e2833001 	add	r3, r3, #1	; 0x1
30000f64:	e50b3010 	str	r3, [fp, #-16]
30000f68:	e51b3018 	ldr	r3, [fp, #-24]
30000f6c:	e3530000 	cmp	r3, #0	; 0x0
30000f70:	1a000001 	bne	30000f7c <simple_strtoul+0xb0>
30000f74:	e3a03008 	mov	r3, #8	; 0x8
30000f78:	e50b3018 	str	r3, [fp, #-24]
30000f7c:	e51b3018 	ldr	r3, [fp, #-24]
30000f80:	e3530000 	cmp	r3, #0	; 0x0
30000f84:	1a000001 	bne	30000f90 <simple_strtoul+0xc4>
30000f88:	e3a0300a 	mov	r3, #10	; 0xa
30000f8c:	e50b3018 	str	r3, [fp, #-24]
30000f90:	e59f2110 	ldr	r2, [pc, #272]	; 300010a8 <.text+0x10a8>
30000f94:	e51b3010 	ldr	r3, [fp, #-16]
30000f98:	e5d33000 	ldrb	r3, [r3]
30000f9c:	e7d23003 	ldrb	r3, [r2, r3]
30000fa0:	e2033044 	and	r3, r3, #68	; 0x44
30000fa4:	e3530000 	cmp	r3, #0	; 0x0
30000fa8:	0a000034 	beq	30001080 <simple_strtoul+0x1b4>
30000fac:	e59f20f4 	ldr	r2, [pc, #244]	; 300010a8 <.text+0x10a8>
30000fb0:	e51b3010 	ldr	r3, [fp, #-16]
30000fb4:	e5d33000 	ldrb	r3, [r3]
30000fb8:	e7d23003 	ldrb	r3, [r2, r3]
30000fbc:	e2033004 	and	r3, r3, #4	; 0x4
30000fc0:	e3530000 	cmp	r3, #0	; 0x0
30000fc4:	0a000006 	beq	30000fe4 <simple_strtoul+0x118>
30000fc8:	e51b3010 	ldr	r3, [fp, #-16]
30000fcc:	e5d33000 	ldrb	r3, [r3]
30000fd0:	e50b3024 	str	r3, [fp, #-36]
30000fd4:	e51b3024 	ldr	r3, [fp, #-36]
30000fd8:	e2433030 	sub	r3, r3, #48	; 0x30
30000fdc:	e50b3024 	str	r3, [fp, #-36]
30000fe0:	ea000017 	b	30001044 <simple_strtoul+0x178>
30000fe4:	e59f20bc 	ldr	r2, [pc, #188]	; 300010a8 <.text+0x10a8>
30000fe8:	e51b3010 	ldr	r3, [fp, #-16]
30000fec:	e5d33000 	ldrb	r3, [r3]
30000ff0:	e7d23003 	ldrb	r3, [r2, r3]
30000ff4:	e2033002 	and	r3, r3, #2	; 0x2
30000ff8:	e3530000 	cmp	r3, #0	; 0x0
30000ffc:	0a00000a 	beq	3000102c <simple_strtoul+0x160>
30001000:	e51b3010 	ldr	r3, [fp, #-16]
30001004:	e5d33000 	ldrb	r3, [r3]
30001008:	e1a00003 	mov	r0, r3
3000100c:	eb000026 	bl	300010ac <__toupper>
30001010:	e1a03000 	mov	r3, r0
30001014:	e20330ff 	and	r3, r3, #255	; 0xff
30001018:	e50b3024 	str	r3, [fp, #-36]
3000101c:	e51b3024 	ldr	r3, [fp, #-36]
30001020:	e2433037 	sub	r3, r3, #55	; 0x37
30001024:	e50b3024 	str	r3, [fp, #-36]
30001028:	ea000005 	b	30001044 <simple_strtoul+0x178>
3000102c:	e51b3010 	ldr	r3, [fp, #-16]
30001030:	e5d33000 	ldrb	r3, [r3]
30001034:	e50b3024 	str	r3, [fp, #-36]
30001038:	e51b3024 	ldr	r3, [fp, #-36]
3000103c:	e2433037 	sub	r3, r3, #55	; 0x37
30001040:	e50b3024 	str	r3, [fp, #-36]
30001044:	e51b2024 	ldr	r2, [fp, #-36]
30001048:	e50b2020 	str	r2, [fp, #-32]
3000104c:	e51b3018 	ldr	r3, [fp, #-24]
30001050:	e1520003 	cmp	r2, r3
30001054:	2a000009 	bcs	30001080 <simple_strtoul+0x1b4>
30001058:	e51b201c 	ldr	r2, [fp, #-28]
3000105c:	e51b3018 	ldr	r3, [fp, #-24]
30001060:	e0020293 	mul	r2, r3, r2
30001064:	e51b3020 	ldr	r3, [fp, #-32]
30001068:	e0823003 	add	r3, r2, r3
3000106c:	e50b301c 	str	r3, [fp, #-28]
30001070:	e51b3010 	ldr	r3, [fp, #-16]
30001074:	e2833001 	add	r3, r3, #1	; 0x1
30001078:	e50b3010 	str	r3, [fp, #-16]
3000107c:	eaffffc3 	b	30000f90 <simple_strtoul+0xc4>
30001080:	e51b3014 	ldr	r3, [fp, #-20]
30001084:	e3530000 	cmp	r3, #0	; 0x0
30001088:	0a000002 	beq	30001098 <simple_strtoul+0x1cc>
3000108c:	e51b2014 	ldr	r2, [fp, #-20]
30001090:	e51b3010 	ldr	r3, [fp, #-16]
30001094:	e5823000 	str	r3, [r2]
30001098:	e51b301c 	ldr	r3, [fp, #-28]
3000109c:	e1a00003 	mov	r0, r3
300010a0:	e24bd00c 	sub	sp, fp, #12	; 0xc
300010a4:	e89da800 	ldmia	sp, {fp, sp, pc}
300010a8:	3000772c 	andcc	r7, r0, ip, lsr #14

300010ac <__toupper>:
300010ac:	e1a0c00d 	mov	ip, sp
300010b0:	e92dd800 	stmdb	sp!, {fp, ip, lr, pc}
300010b4:	e24cb004 	sub	fp, ip, #4	; 0x4
300010b8:	e24dd004 	sub	sp, sp, #4	; 0x4
300010bc:	e1a03000 	mov	r3, r0
300010c0:	e54b300d 	strb	r3, [fp, #-13]
300010c4:	e59f2028 	ldr	r2, [pc, #40]	; 300010f4 <.text+0x10f4>
300010c8:	e55b300d 	ldrb	r3, [fp, #-13]
300010cc:	e7d23003 	ldrb	r3, [r2, r3]
300010d0:	e2033002 	and	r3, r3, #2	; 0x2
300010d4:	e3530000 	cmp	r3, #0	; 0x0
300010d8:	0a000002 	beq	300010e8 <__toupper+0x3c>
300010dc:	e55b300d 	ldrb	r3, [fp, #-13]
300010e0:	e2433020 	sub	r3, r3, #32	; 0x20
300010e4:	e54b300d 	strb	r3, [fp, #-13]
300010e8:	e55b300d 	ldrb	r3, [fp, #-13]
300010ec:	e1a00003 	mov	r0, r3
300010f0:	e89da808 	ldmia	sp, {r3, fp, sp, pc}
300010f4:	3000772c 	andcc	r7, r0, ip, lsr #14

300010f8 <simple_strtol>:
300010f8:	e1a0c00d 	mov	ip, sp
300010fc:	e92dd800 	stmdb	sp!, {fp, ip, lr, pc}
30001100:	e24cb004 	sub	fp, ip, #4	; 0x4
30001104:	e24dd010 	sub	sp, sp, #16	; 0x10
30001108:	e50b0010 	str	r0, [fp, #-16]
3000110c:	e50b1014 	str	r1, [fp, #-20]
30001110:	e50b2018 	str	r2, [fp, #-24]
30001114:	e51b3010 	ldr	r3, [fp, #-16]
30001118:	e5d33000 	ldrb	r3, [r3]
3000111c:	e353002d 	cmp	r3, #45	; 0x2d
30001120:	1a000009 	bne	3000114c <simple_strtol+0x54>
30001124:	e51b3010 	ldr	r3, [fp, #-16]
30001128:	e2833001 	add	r3, r3, #1	; 0x1
3000112c:	e1a00003 	mov	r0, r3
30001130:	e51b1014 	ldr	r1, [fp, #-20]
30001134:	e51b2018 	ldr	r2, [fp, #-24]
30001138:	ebffff63 	bl	30000ecc <simple_strtoul>
3000113c:	e1a03000 	mov	r3, r0
30001140:	e2633000 	rsb	r3, r3, #0	; 0x0
30001144:	e50b301c 	str	r3, [fp, #-28]
30001148:	ea000005 	b	30001164 <simple_strtol+0x6c>
3000114c:	e51b0010 	ldr	r0, [fp, #-16]
30001150:	e51b1014 	ldr	r1, [fp, #-20]
30001154:	e51b2018 	ldr	r2, [fp, #-24]
30001158:	ebffff5b 	bl	30000ecc <simple_strtoul>
3000115c:	e1a03000 	mov	r3, r0
30001160:	e50b301c 	str	r3, [fp, #-28]
30001164:	e51b001c 	ldr	r0, [fp, #-28]
30001168:	e24bd00c 	sub	sp, fp, #12	; 0xc
3000116c:	e89da800 	ldmia	sp, {fp, sp, pc}

30001170 <gets>:
30001170:	e1a0c00d 	mov	ip, sp
30001174:	e92dd800 	stmdb	sp!, {fp, ip, lr, pc}
30001178:	e24cb004 	sub	fp, ip, #4	; 0x4
3000117c:	e24dd00c 	sub	sp, sp, #12	; 0xc
30001180:	e50b0010 	str	r0, [fp, #-16]
30001184:	e3a03000 	mov	r3, #0	; 0x0
30001188:	e50b3014 	str	r3, [fp, #-20]
3000118c:	eb000b21 	bl	30003e18 <getchar>
30001190:	e1a03000 	mov	r3, r0
30001194:	e54b3015 	strb	r3, [fp, #-21]
30001198:	e55b3015 	ldrb	r3, [fp, #-21]
3000119c:	e1a00003 	mov	r0, r3
300011a0:	eb000afb 	bl	30003d94 <putchar>
300011a4:	e55b3015 	ldrb	r3, [fp, #-21]
300011a8:	e353000a 	cmp	r3, #10	; 0xa
300011ac:	1a000002 	bne	300011bc <gets+0x4c>
300011b0:	e3a0000d 	mov	r0, #13	; 0xd
300011b4:	eb000af6 	bl	30003d94 <putchar>
300011b8:	ea000004 	b	300011d0 <gets+0x60>
300011bc:	e55b3015 	ldrb	r3, [fp, #-21]
300011c0:	e353000d 	cmp	r3, #13	; 0xd
300011c4:	1a000001 	bne	300011d0 <gets+0x60>
300011c8:	e3a0000a 	mov	r0, #10	; 0xa
300011cc:	eb000af0 	bl	30003d94 <putchar>
300011d0:	e55b3015 	ldrb	r3, [fp, #-21]
300011d4:	e353000a 	cmp	r3, #10	; 0xa
300011d8:	0a000003 	beq	300011ec <gets+0x7c>
300011dc:	e55b3015 	ldrb	r3, [fp, #-21]
300011e0:	e353000d 	cmp	r3, #13	; 0xd
300011e4:	0a000000 	beq	300011ec <gets+0x7c>
300011e8:	ea000005 	b	30001204 <gets+0x94>
300011ec:	e51b2010 	ldr	r2, [fp, #-16]
300011f0:	e51b3014 	ldr	r3, [fp, #-20]
300011f4:	e0822003 	add	r2, r2, r3
300011f8:	e3a03000 	mov	r3, #0	; 0x0
300011fc:	e5c23000 	strb	r3, [r2]
30001200:	ea000009 	b	3000122c <gets+0xbc>
30001204:	e24b0014 	sub	r0, fp, #20	; 0x14
30001208:	e5902000 	ldr	r2, [r0]
3000120c:	e1a01002 	mov	r1, r2
30001210:	e51b3010 	ldr	r3, [fp, #-16]
30001214:	e0811003 	add	r1, r1, r3
30001218:	e55b3015 	ldrb	r3, [fp, #-21]
3000121c:	e5c13000 	strb	r3, [r1]
30001220:	e2822001 	add	r2, r2, #1	; 0x1
30001224:	e5802000 	str	r2, [r0]
30001228:	eaffffd7 	b	3000118c <gets+0x1c>
3000122c:	e51b3010 	ldr	r3, [fp, #-16]
30001230:	e1a00003 	mov	r0, r3
30001234:	e24bd00c 	sub	sp, fp, #12	; 0xc
30001238:	e89da800 	ldmia	sp, {fp, sp, pc}

3000123c <get_int>:
3000123c:	e1a0c00d 	mov	ip, sp
30001240:	e92dd800 	stmdb	sp!, {fp, ip, lr, pc}
30001244:	e24cb004 	sub	fp, ip, #4	; 0x4
30001248:	e24dd064 	sub	sp, sp, #100	; 0x64
3000124c:	e24b3070 	sub	r3, fp, #112	; 0x70
30001250:	e1a00003 	mov	r0, r3
30001254:	ebffffc5 	bl	30001170 <gets>
30001258:	e24b3070 	sub	r3, fp, #112	; 0x70
3000125c:	e1a00003 	mov	r0, r3
30001260:	e3a01000 	mov	r1, #0	; 0x0
30001264:	e3a02000 	mov	r2, #0	; 0x0
30001268:	ebffffa2 	bl	300010f8 <simple_strtol>
3000126c:	e1a03000 	mov	r3, r0
30001270:	e1a00003 	mov	r0, r3
30001274:	e24bd00c 	sub	sp, fp, #12	; 0xc
30001278:	e89da800 	ldmia	sp, {fp, sp, pc}

3000127c <get_uint>:
3000127c:	e1a0c00d 	mov	ip, sp
30001280:	e92dd800 	stmdb	sp!, {fp, ip, lr, pc}
30001284:	e24cb004 	sub	fp, ip, #4	; 0x4
30001288:	e24dd064 	sub	sp, sp, #100	; 0x64
3000128c:	e24b3070 	sub	r3, fp, #112	; 0x70
30001290:	e1a00003 	mov	r0, r3
30001294:	ebffffb5 	bl	30001170 <gets>
30001298:	e24b3070 	sub	r3, fp, #112	; 0x70
3000129c:	e1a00003 	mov	r0, r3
300012a0:	e3a01000 	mov	r1, #0	; 0x0
300012a4:	e3a02000 	mov	r2, #0	; 0x0
300012a8:	ebffff07 	bl	30000ecc <simple_strtoul>
300012ac:	e1a03000 	mov	r3, r0
300012b0:	e1a00003 	mov	r0, r3
300012b4:	e24bd00c 	sub	sp, fp, #12	; 0xc
300012b8:	e89da800 	ldmia	sp, {fp, sp, pc}

300012bc <strcmp>:
300012bc:	e1a0c00d 	mov	ip, sp
300012c0:	e92dd800 	stmdb	sp!, {fp, ip, lr, pc}
300012c4:	e24cb004 	sub	fp, ip, #4	; 0x4
300012c8:	e24dd00c 	sub	sp, sp, #12	; 0xc
300012cc:	e50b0010 	str	r0, [fp, #-16]
300012d0:	e50b1014 	str	r1, [fp, #-20]
300012d4:	e51b1010 	ldr	r1, [fp, #-16]
300012d8:	e24b0014 	sub	r0, fp, #20	; 0x14
300012dc:	e5902000 	ldr	r2, [r0]
300012e0:	e1a03002 	mov	r3, r2
300012e4:	e5d11000 	ldrb	r1, [r1]
300012e8:	e5d33000 	ldrb	r3, [r3]
300012ec:	e0633001 	rsb	r3, r3, r1
300012f0:	e20310ff 	and	r1, r3, #255	; 0xff
300012f4:	e50b1018 	str	r1, [fp, #-24]
300012f8:	e2822001 	add	r2, r2, #1	; 0x1
300012fc:	e5802000 	str	r2, [r0]
30001300:	e1a03c03 	mov	r3, r3, lsl #24
30001304:	e1a03c43 	mov	r3, r3, asr #24
30001308:	e3530000 	cmp	r3, #0	; 0x0
3000130c:	1a000007 	bne	30001330 <strcmp+0x74>
30001310:	e24b2010 	sub	r2, fp, #16	; 0x10
30001314:	e5923000 	ldr	r3, [r2]
30001318:	e5d31000 	ldrb	r1, [r3]
3000131c:	e2833001 	add	r3, r3, #1	; 0x1
30001320:	e5823000 	str	r3, [r2]
30001324:	e20130ff 	and	r3, r1, #255	; 0xff
30001328:	e3530000 	cmp	r3, #0	; 0x0
3000132c:	1affffe8 	bne	300012d4 <strcmp+0x18>
30001330:	e51b2018 	ldr	r2, [fp, #-24]
30001334:	e1a03c02 	mov	r3, r2, lsl #24
30001338:	e1a03c43 	mov	r3, r3, asr #24
3000133c:	e1a00003 	mov	r0, r3
30001340:	e24bd00c 	sub	sp, fp, #12	; 0xc
30001344:	e89da800 	ldmia	sp, {fp, sp, pc}

30001348 <outc>:
30001348:	e1a0c00d 	mov	ip, sp
3000134c:	e92dd800 	stmdb	sp!, {fp, ip, lr, pc}
30001350:	e24cb004 	sub	fp, ip, #4	; 0x4
30001354:	e24dd004 	sub	sp, sp, #4	; 0x4
30001358:	e50b0010 	str	r0, [fp, #-16]
3000135c:	e51b0010 	ldr	r0, [fp, #-16]
30001360:	eb000a8b 	bl	30003d94 <putchar>
30001364:	e3a03000 	mov	r3, #0	; 0x0
30001368:	e1a00003 	mov	r0, r3
3000136c:	e89da808 	ldmia	sp, {r3, fp, sp, pc}

30001370 <outs>:
30001370:	e1a0c00d 	mov	ip, sp
30001374:	e92dd800 	stmdb	sp!, {fp, ip, lr, pc}
30001378:	e24cb004 	sub	fp, ip, #4	; 0x4
3000137c:	e24dd004 	sub	sp, sp, #4	; 0x4
30001380:	e50b0010 	str	r0, [fp, #-16]
30001384:	e51b3010 	ldr	r3, [fp, #-16]
30001388:	e5d33000 	ldrb	r3, [r3]
3000138c:	e3530000 	cmp	r3, #0	; 0x0
30001390:	0a000008 	beq	300013b8 <outs+0x48>
30001394:	e24b1010 	sub	r1, fp, #16	; 0x10
30001398:	e5913000 	ldr	r3, [r1]
3000139c:	e1a02003 	mov	r2, r3
300013a0:	e5d22000 	ldrb	r2, [r2]
300013a4:	e2833001 	add	r3, r3, #1	; 0x1
300013a8:	e5813000 	str	r3, [r1]
300013ac:	e1a00002 	mov	r0, r2
300013b0:	eb000a77 	bl	30003d94 <putchar>
300013b4:	eafffff2 	b	30001384 <outs+0x14>
300013b8:	e3a03000 	mov	r3, #0	; 0x0
300013bc:	e1a00003 	mov	r0, r3
300013c0:	e89da808 	ldmia	sp, {r3, fp, sp, pc}

300013c4 <out_num>:
300013c4:	e1a0c00d 	mov	ip, sp
300013c8:	e92dd830 	stmdb	sp!, {r4, r5, fp, ip, lr, pc}
300013cc:	e24cb004 	sub	fp, ip, #4	; 0x4
300013d0:	e24dd060 	sub	sp, sp, #96	; 0x60
300013d4:	e50b0018 	str	r0, [fp, #-24]
300013d8:	e50b101c 	str	r1, [fp, #-28]
300013dc:	e50b3024 	str	r3, [fp, #-36]
300013e0:	e1a03002 	mov	r3, r2
300013e4:	e54b301d 	strb	r3, [fp, #-29]
300013e8:	e3a03000 	mov	r3, #0	; 0x0
300013ec:	e50b3028 	str	r3, [fp, #-40]
300013f0:	e24b3068 	sub	r3, fp, #104	; 0x68
300013f4:	e2833040 	add	r3, r3, #64	; 0x40
300013f8:	e50b306c 	str	r3, [fp, #-108]
300013fc:	e3a03000 	mov	r3, #0	; 0x0
30001400:	e50b3070 	str	r3, [fp, #-112]
30001404:	e3a03000 	mov	r3, #0	; 0x0
30001408:	e50b3074 	str	r3, [fp, #-116]
3000140c:	e51b306c 	ldr	r3, [fp, #-108]
30001410:	e2433001 	sub	r3, r3, #1	; 0x1
30001414:	e1a02003 	mov	r2, r3
30001418:	e50b206c 	str	r2, [fp, #-108]
3000141c:	e3a03000 	mov	r3, #0	; 0x0
30001420:	e5c23000 	strb	r3, [r2]
30001424:	e51b3018 	ldr	r3, [fp, #-24]
30001428:	e3530000 	cmp	r3, #0	; 0x0
3000142c:	aa000003 	bge	30001440 <out_num+0x7c>
30001430:	e51b3018 	ldr	r3, [fp, #-24]
30001434:	e2633000 	rsb	r3, r3, #0	; 0x0
30001438:	e50b3028 	str	r3, [fp, #-40]
3000143c:	ea000001 	b	30001448 <out_num+0x84>
30001440:	e51b3018 	ldr	r3, [fp, #-24]
30001444:	e50b3028 	str	r3, [fp, #-40]
30001448:	e51b306c 	ldr	r3, [fp, #-108]
3000144c:	e2433001 	sub	r3, r3, #1	; 0x1
30001450:	e1a04003 	mov	r4, r3
30001454:	e50b406c 	str	r4, [fp, #-108]
30001458:	e59f50e0 	ldr	r5, [pc, #224]	; 30001540 <.text+0x1540>
3000145c:	e51b3028 	ldr	r3, [fp, #-40]
30001460:	e1a00003 	mov	r0, r3
30001464:	e51b101c 	ldr	r1, [fp, #-28]
30001468:	eb0010af 	bl	3000572c <__umodsi3>
3000146c:	e1a03000 	mov	r3, r0
30001470:	e7d53003 	ldrb	r3, [r5, r3]
30001474:	e5c43000 	strb	r3, [r4]
30001478:	e51b3070 	ldr	r3, [fp, #-112]
3000147c:	e2833001 	add	r3, r3, #1	; 0x1
30001480:	e50b3070 	str	r3, [fp, #-112]
30001484:	e51b0028 	ldr	r0, [fp, #-40]
30001488:	e51b101c 	ldr	r1, [fp, #-28]
3000148c:	eb001068 	bl	30005634 <__udivsi3>
30001490:	e1a03000 	mov	r3, r0
30001494:	e50b3028 	str	r3, [fp, #-40]
30001498:	e3530000 	cmp	r3, #0	; 0x0
3000149c:	0a000000 	beq	300014a4 <out_num+0xe0>
300014a0:	eaffffe8 	b	30001448 <out_num+0x84>
300014a4:	e51b3024 	ldr	r3, [fp, #-36]
300014a8:	e3530000 	cmp	r3, #0	; 0x0
300014ac:	0a000014 	beq	30001504 <out_num+0x140>
300014b0:	e51b2070 	ldr	r2, [fp, #-112]
300014b4:	e51b3024 	ldr	r3, [fp, #-36]
300014b8:	e1520003 	cmp	r2, r3
300014bc:	aa000010 	bge	30001504 <out_num+0x140>
300014c0:	e51b3024 	ldr	r3, [fp, #-36]
300014c4:	e51b2070 	ldr	r2, [fp, #-112]
300014c8:	e0623003 	rsb	r3, r2, r3
300014cc:	e50b3074 	str	r3, [fp, #-116]
300014d0:	e51b3074 	ldr	r3, [fp, #-116]
300014d4:	e3530000 	cmp	r3, #0	; 0x0
300014d8:	0a000009 	beq	30001504 <out_num+0x140>
300014dc:	e51b306c 	ldr	r3, [fp, #-108]
300014e0:	e2433001 	sub	r3, r3, #1	; 0x1
300014e4:	e1a02003 	mov	r2, r3
300014e8:	e50b206c 	str	r2, [fp, #-108]
300014ec:	e55b301d 	ldrb	r3, [fp, #-29]
300014f0:	e5c23000 	strb	r3, [r2]
300014f4:	e51b3074 	ldr	r3, [fp, #-116]
300014f8:	e2433001 	sub	r3, r3, #1	; 0x1
300014fc:	e50b3074 	str	r3, [fp, #-116]
30001500:	eafffff2 	b	300014d0 <out_num+0x10c>
30001504:	e51b3018 	ldr	r3, [fp, #-24]
30001508:	e3530000 	cmp	r3, #0	; 0x0
3000150c:	aa000005 	bge	30001528 <out_num+0x164>
30001510:	e51b306c 	ldr	r3, [fp, #-108]
30001514:	e2433001 	sub	r3, r3, #1	; 0x1
30001518:	e1a02003 	mov	r2, r3
3000151c:	e50b206c 	str	r2, [fp, #-108]
30001520:	e3a0302d 	mov	r3, #45	; 0x2d
30001524:	e5c23000 	strb	r3, [r2]
30001528:	e51b006c 	ldr	r0, [fp, #-108]
3000152c:	ebffff8f 	bl	30001370 <outs>
30001530:	e1a03000 	mov	r3, r0
30001534:	e1a00003 	mov	r0, r3
30001538:	e24bd014 	sub	sp, fp, #20	; 0x14
3000153c:	e89da830 	ldmia	sp, {r4, r5, fp, sp, pc}
30001540:	3000782c 	andcc	r7, r0, ip, lsr #16

30001544 <my_vprintf>:
30001544:	e1a0c00d 	mov	ip, sp
30001548:	e92dd800 	stmdb	sp!, {fp, ip, lr, pc}
3000154c:	e24cb004 	sub	fp, ip, #4	; 0x4
30001550:	e24dd010 	sub	sp, sp, #16	; 0x10
30001554:	e50b0010 	str	r0, [fp, #-16]
30001558:	e50b1014 	str	r1, [fp, #-20]
3000155c:	e3a03020 	mov	r3, #32	; 0x20
30001560:	e54b3015 	strb	r3, [fp, #-21]
30001564:	e3a03000 	mov	r3, #0	; 0x0
30001568:	e50b301c 	str	r3, [fp, #-28]
3000156c:	e51b3010 	ldr	r3, [fp, #-16]
30001570:	e5d33000 	ldrb	r3, [r3]
30001574:	e3530000 	cmp	r3, #0	; 0x0
30001578:	0a000096 	beq	300017d8 <.text+0x17d8>
3000157c:	e51b3010 	ldr	r3, [fp, #-16]
30001580:	e5d33000 	ldrb	r3, [r3]
30001584:	e3530025 	cmp	r3, #37	; 0x25
30001588:	0a000004 	beq	300015a0 <my_vprintf+0x5c>
3000158c:	e51b3010 	ldr	r3, [fp, #-16]
30001590:	e5d33000 	ldrb	r3, [r3]
30001594:	e1a00003 	mov	r0, r3
30001598:	ebffff6a 	bl	30001348 <outc>
3000159c:	ea000089 	b	300017c8 <.text+0x17c8>
300015a0:	e3a03020 	mov	r3, #32	; 0x20
300015a4:	e54b3015 	strb	r3, [fp, #-21]
300015a8:	e3a03000 	mov	r3, #0	; 0x0
300015ac:	e50b301c 	str	r3, [fp, #-28]
300015b0:	e51b3010 	ldr	r3, [fp, #-16]
300015b4:	e2833001 	add	r3, r3, #1	; 0x1
300015b8:	e50b3010 	str	r3, [fp, #-16]
300015bc:	e51b3010 	ldr	r3, [fp, #-16]
300015c0:	e5d33000 	ldrb	r3, [r3]
300015c4:	e3530030 	cmp	r3, #48	; 0x30
300015c8:	1a000004 	bne	300015e0 <my_vprintf+0x9c>
300015cc:	e3a03030 	mov	r3, #48	; 0x30
300015d0:	e54b3015 	strb	r3, [fp, #-21]
300015d4:	e51b3010 	ldr	r3, [fp, #-16]
300015d8:	e2833001 	add	r3, r3, #1	; 0x1
300015dc:	e50b3010 	str	r3, [fp, #-16]
300015e0:	e51b3010 	ldr	r3, [fp, #-16]
300015e4:	e5d33000 	ldrb	r3, [r3]
300015e8:	e353002f 	cmp	r3, #47	; 0x2f
300015ec:	9a000013 	bls	30001640 <my_vprintf+0xfc>
300015f0:	e51b3010 	ldr	r3, [fp, #-16]
300015f4:	e5d33000 	ldrb	r3, [r3]
300015f8:	e3530039 	cmp	r3, #57	; 0x39
300015fc:	8a00000f 	bhi	30001640 <my_vprintf+0xfc>
30001600:	e51b201c 	ldr	r2, [fp, #-28]
30001604:	e1a03002 	mov	r3, r2
30001608:	e1a03103 	mov	r3, r3, lsl #2
3000160c:	e0833002 	add	r3, r3, r2
30001610:	e1a03083 	mov	r3, r3, lsl #1
30001614:	e50b301c 	str	r3, [fp, #-28]
30001618:	e51b3010 	ldr	r3, [fp, #-16]
3000161c:	e5d32000 	ldrb	r2, [r3]
30001620:	e51b301c 	ldr	r3, [fp, #-28]
30001624:	e0823003 	add	r3, r2, r3
30001628:	e2433030 	sub	r3, r3, #48	; 0x30
3000162c:	e50b301c 	str	r3, [fp, #-28]
30001630:	e51b3010 	ldr	r3, [fp, #-16]
30001634:	e2833001 	add	r3, r3, #1	; 0x1
30001638:	e50b3010 	str	r3, [fp, #-16]
3000163c:	eaffffe7 	b	300015e0 <my_vprintf+0x9c>
30001640:	e51b3010 	ldr	r3, [fp, #-16]
30001644:	e5d33000 	ldrb	r3, [r3]
30001648:	e2433063 	sub	r3, r3, #99	; 0x63
3000164c:	e3530015 	cmp	r3, #21	; 0x15
30001650:	979ff103 	ldrls	pc, [pc, r3, lsl #2]
30001654:	ea000057 	b	300017b8 <.text+0x17b8>
30001658:	30001770 	andcc	r1, r0, r0, ror r7
3000165c:	300016b0 	strcch	r1, [r0], -r0
30001660:	300017b8 	strcch	r1, [r0], -r8
30001664:	300017b8 	strcch	r1, [r0], -r8
30001668:	300017b8 	strcch	r1, [r0], -r8
3000166c:	300017b8 	strcch	r1, [r0], -r8
30001670:	300017b8 	strcch	r1, [r0], -r8
30001674:	300017b8 	strcch	r1, [r0], -r8
30001678:	300017b8 	strcch	r1, [r0], -r8
3000167c:	300017b8 	strcch	r1, [r0], -r8
30001680:	300017b8 	strcch	r1, [r0], -r8
30001684:	300017b8 	strcch	r1, [r0], -r8
30001688:	300016e0 	andcc	r1, r0, r0, ror #13
3000168c:	300017b8 	strcch	r1, [r0], -r8
30001690:	300017b8 	strcch	r1, [r0], -r8
30001694:	300017b8 	strcch	r1, [r0], -r8
30001698:	30001794 	mulcc	r0, r4, r7
3000169c:	300017b8 	strcch	r1, [r0], -r8
300016a0:	30001710 	andcc	r1, r0, r0, lsl r7
300016a4:	300017b8 	strcch	r1, [r0], -r8
300016a8:	300017b8 	strcch	r1, [r0], -r8
300016ac:	30001740 	andcc	r1, r0, r0, asr #14
300016b0:	e51b3014 	ldr	r3, [fp, #-20]
300016b4:	e2833004 	add	r3, r3, #4	; 0x4
300016b8:	e50b3014 	str	r3, [fp, #-20]
300016bc:	e3e02003 	mvn	r2, #3	; 0x3
300016c0:	e51b3014 	ldr	r3, [fp, #-20]
300016c4:	e0823003 	add	r3, r2, r3
300016c8:	e55b2015 	ldrb	r2, [fp, #-21]
300016cc:	e5930000 	ldr	r0, [r3]
300016d0:	e3a0100a 	mov	r1, #10	; 0xa
300016d4:	e51b301c 	ldr	r3, [fp, #-28]
300016d8:	ebffff39 	bl	300013c4 <out_num>
300016dc:	ea000039 	b	300017c8 <.text+0x17c8>
300016e0:	e51b3014 	ldr	r3, [fp, #-20]
300016e4:	e2833004 	add	r3, r3, #4	; 0x4
300016e8:	e50b3014 	str	r3, [fp, #-20]
300016ec:	e3e02003 	mvn	r2, #3	; 0x3
300016f0:	e51b3014 	ldr	r3, [fp, #-20]
300016f4:	e0823003 	add	r3, r2, r3
300016f8:	e55b2015 	ldrb	r2, [fp, #-21]
300016fc:	e5930000 	ldr	r0, [r3]
30001700:	e3a01008 	mov	r1, #8	; 0x8
30001704:	e51b301c 	ldr	r3, [fp, #-28]
30001708:	ebffff2d 	bl	300013c4 <out_num>
3000170c:	ea00002d 	b	300017c8 <.text+0x17c8>
30001710:	e51b3014 	ldr	r3, [fp, #-20]
30001714:	e2833004 	add	r3, r3, #4	; 0x4
30001718:	e50b3014 	str	r3, [fp, #-20]
3000171c:	e3e02003 	mvn	r2, #3	; 0x3
30001720:	e51b3014 	ldr	r3, [fp, #-20]
30001724:	e0823003 	add	r3, r2, r3
30001728:	e55b2015 	ldrb	r2, [fp, #-21]
3000172c:	e5930000 	ldr	r0, [r3]
30001730:	e3a0100a 	mov	r1, #10	; 0xa
30001734:	e51b301c 	ldr	r3, [fp, #-28]
30001738:	ebffff21 	bl	300013c4 <out_num>
3000173c:	ea000021 	b	300017c8 <.text+0x17c8>
30001740:	e51b3014 	ldr	r3, [fp, #-20]
30001744:	e2833004 	add	r3, r3, #4	; 0x4
30001748:	e50b3014 	str	r3, [fp, #-20]
3000174c:	e3e02003 	mvn	r2, #3	; 0x3
30001750:	e51b3014 	ldr	r3, [fp, #-20]
30001754:	e0823003 	add	r3, r2, r3
30001758:	e55b2015 	ldrb	r2, [fp, #-21]
3000175c:	e5930000 	ldr	r0, [r3]
30001760:	e3a01010 	mov	r1, #16	; 0x10
30001764:	e51b301c 	ldr	r3, [fp, #-28]
30001768:	ebffff15 	bl	300013c4 <out_num>
3000176c:	ea000015 	b	300017c8 <.text+0x17c8>
30001770:	e51b3014 	ldr	r3, [fp, #-20]
30001774:	e2833004 	add	r3, r3, #4	; 0x4
30001778:	e50b3014 	str	r3, [fp, #-20]
3000177c:	e3e02003 	mvn	r2, #3	; 0x3
30001780:	e51b3014 	ldr	r3, [fp, #-20]
30001784:	e0823003 	add	r3, r2, r3
30001788:	e5930000 	ldr	r0, [r3]
3000178c:	ebfffeed 	bl	30001348 <outc>
30001790:	ea00000c 	b	300017c8 <.text+0x17c8>
30001794:	e51b3014 	ldr	r3, [fp, #-20]
30001798:	e2833004 	add	r3, r3, #4	; 0x4
3000179c:	e50b3014 	str	r3, [fp, #-20]
300017a0:	e3e02003 	mvn	r2, #3	; 0x3
300017a4:	e51b3014 	ldr	r3, [fp, #-20]
300017a8:	e0823003 	add	r3, r2, r3
300017ac:	e5930000 	ldr	r0, [r3]
300017b0:	ebfffeee 	bl	30001370 <outs>
300017b4:	ea000003 	b	300017c8 <.text+0x17c8>
300017b8:	e51b3010 	ldr	r3, [fp, #-16]
300017bc:	e5d33000 	ldrb	r3, [r3]
300017c0:	e1a00003 	mov	r0, r3
300017c4:	ebfffedf 	bl	30001348 <outc>
300017c8:	e51b3010 	ldr	r3, [fp, #-16]
300017cc:	e2833001 	add	r3, r3, #1	; 0x1
300017d0:	e50b3010 	str	r3, [fp, #-16]
300017d4:	eaffff64 	b	3000156c <my_vprintf+0x28>
300017d8:	e3a03000 	mov	r3, #0	; 0x0
300017dc:	e1a00003 	mov	r0, r3
300017e0:	e24bd00c 	sub	sp, fp, #12	; 0xc
300017e4:	e89da800 	ldmia	sp, {fp, sp, pc}

300017e8 <raise>:
300017e8:	e1a0c00d 	mov	ip, sp
300017ec:	e92dd800 	stmdb	sp!, {fp, ip, lr, pc}
300017f0:	e24cb004 	sub	fp, ip, #4	; 0x4
300017f4:	e24dd004 	sub	sp, sp, #4	; 0x4
300017f8:	e50b0010 	str	r0, [fp, #-16]
300017fc:	e3a03000 	mov	r3, #0	; 0x0
30001800:	e1a00003 	mov	r0, r3
30001804:	e89da808 	ldmia	sp, {r3, fp, sp, pc}

30001808 <printf>:
30001808:	e1a0c00d 	mov	ip, sp
3000180c:	e92d000f 	stmdb	sp!, {r0, r1, r2, r3}
30001810:	e92dd800 	stmdb	sp!, {fp, ip, lr, pc}
30001814:	e24cb014 	sub	fp, ip, #20	; 0x14
30001818:	e24dd004 	sub	sp, sp, #4	; 0x4
3000181c:	e28b3008 	add	r3, fp, #8	; 0x8
30001820:	e50b3010 	str	r3, [fp, #-16]
30001824:	e59b0004 	ldr	r0, [fp, #4]
30001828:	e51b1010 	ldr	r1, [fp, #-16]
3000182c:	ebffff44 	bl	30001544 <my_vprintf>
30001830:	e3a03000 	mov	r3, #0	; 0x0
30001834:	e50b3010 	str	r3, [fp, #-16]
30001838:	e3a03000 	mov	r3, #0	; 0x0
3000183c:	e1a00003 	mov	r0, r3
30001840:	e24bd00c 	sub	sp, fp, #12	; 0xc
30001844:	e89da800 	ldmia	sp, {fp, sp, pc}

30001848 <inierript_config>:
30001848:	e1a0c00d 	mov	ip, sp
3000184c:	e92dd800 	stmdb	sp!, {fp, ip, lr, pc}
30001850:	e24cb004 	sub	fp, ip, #4	; 0x4
30001854:	e1a00003 	mov	r0, r3
30001858:	e89da800 	ldmia	sp, {fp, sp, pc}

3000185c <int_8_23_handle_irq>:
3000185c:	e1a0c00d 	mov	ip, sp
30001860:	e92dd800 	stmdb	sp!, {fp, ip, lr, pc}
30001864:	e24cb004 	sub	fp, ip, #4	; 0x4
30001868:	e24dd008 	sub	sp, sp, #8	; 0x8
3000186c:	e3a03456 	mov	r3, #1442840576	; 0x56000000
30001870:	e28330a8 	add	r3, r3, #168	; 0xa8
30001874:	e5933000 	ldr	r3, [r3]
30001878:	e50b3010 	str	r3, [fp, #-16]
3000187c:	e3a03456 	mov	r3, #1442840576	; 0x56000000
30001880:	e2833064 	add	r3, r3, #100	; 0x64
30001884:	e5933000 	ldr	r3, [r3]
30001888:	e50b3014 	str	r3, [fp, #-20]
3000188c:	e51b3010 	ldr	r3, [fp, #-16]
30001890:	e2033b02 	and	r3, r3, #2048	; 0x800
30001894:	e3530000 	cmp	r3, #0	; 0x0
30001898:	0a00000f 	beq	300018dc <int_8_23_handle_irq+0x80>
3000189c:	e51b3014 	ldr	r3, [fp, #-20]
300018a0:	e2033008 	and	r3, r3, #8	; 0x8
300018a4:	e3530000 	cmp	r3, #0	; 0x0
300018a8:	0a000005 	beq	300018c4 <int_8_23_handle_irq+0x68>
300018ac:	e3a00456 	mov	r0, #1442840576	; 0x56000000
300018b0:	e2800054 	add	r0, r0, #84	; 0x54
300018b4:	e3a01010 	mov	r1, #16	; 0x10
300018b8:	e3a02010 	mov	r2, #16	; 0x10
300018bc:	eb000ef7 	bl	300054a0 <gpio_set>
300018c0:	ea00001c 	b	30001938 <int_8_23_handle_irq+0xdc>
300018c4:	e3a00456 	mov	r0, #1442840576	; 0x56000000
300018c8:	e2800054 	add	r0, r0, #84	; 0x54
300018cc:	e3a01010 	mov	r1, #16	; 0x10
300018d0:	e3a02000 	mov	r2, #0	; 0x0
300018d4:	eb000ef1 	bl	300054a0 <gpio_set>
300018d8:	ea000016 	b	30001938 <int_8_23_handle_irq+0xdc>
300018dc:	e51b3010 	ldr	r3, [fp, #-16]
300018e0:	e2033702 	and	r3, r3, #524288	; 0x80000
300018e4:	e3530000 	cmp	r3, #0	; 0x0
300018e8:	0a000012 	beq	30001938 <int_8_23_handle_irq+0xdc>
300018ec:	e51b3014 	ldr	r3, [fp, #-20]
300018f0:	e2033b02 	and	r3, r3, #2048	; 0x800
300018f4:	e3530000 	cmp	r3, #0	; 0x0
300018f8:	0a000007 	beq	3000191c <int_8_23_handle_irq+0xc0>
300018fc:	e3a02456 	mov	r2, #1442840576	; 0x56000000
30001900:	e2822054 	add	r2, r2, #84	; 0x54
30001904:	e3a03456 	mov	r3, #1442840576	; 0x56000000
30001908:	e2833054 	add	r3, r3, #84	; 0x54
3000190c:	e5933000 	ldr	r3, [r3]
30001910:	e3833070 	orr	r3, r3, #112	; 0x70
30001914:	e5823000 	str	r3, [r2]
30001918:	ea000006 	b	30001938 <int_8_23_handle_irq+0xdc>
3000191c:	e3a02456 	mov	r2, #1442840576	; 0x56000000
30001920:	e2822054 	add	r2, r2, #84	; 0x54
30001924:	e3a03456 	mov	r3, #1442840576	; 0x56000000
30001928:	e2833054 	add	r3, r3, #84	; 0x54
3000192c:	e5933000 	ldr	r3, [r3]
30001930:	e3c33070 	bic	r3, r3, #112	; 0x70
30001934:	e5823000 	str	r3, [r2]
30001938:	e24bd00c 	sub	sp, fp, #12	; 0xc
3000193c:	e89da800 	ldmia	sp, {fp, sp, pc}

30001940 <int_2_handle_irq>:
30001940:	e1a0c00d 	mov	ip, sp
30001944:	e92dd800 	stmdb	sp!, {fp, ip, lr, pc}
30001948:	e24cb004 	sub	fp, ip, #4	; 0x4
3000194c:	e24dd004 	sub	sp, sp, #4	; 0x4
30001950:	e3a03456 	mov	r3, #1442840576	; 0x56000000
30001954:	e2833054 	add	r3, r3, #84	; 0x54
30001958:	e5933000 	ldr	r3, [r3]
3000195c:	e50b3010 	str	r3, [fp, #-16]
30001960:	e51b3010 	ldr	r3, [fp, #-16]
30001964:	e2033004 	and	r3, r3, #4	; 0x4
30001968:	e3530000 	cmp	r3, #0	; 0x0
3000196c:	0a000005 	beq	30001988 <int_2_handle_irq+0x48>
30001970:	e3a00456 	mov	r0, #1442840576	; 0x56000000
30001974:	e2800054 	add	r0, r0, #84	; 0x54
30001978:	e3a01020 	mov	r1, #32	; 0x20
3000197c:	e3a02020 	mov	r2, #32	; 0x20
30001980:	eb000ec6 	bl	300054a0 <gpio_set>
30001984:	ea000004 	b	3000199c <int_2_handle_irq+0x5c>
30001988:	e3a00456 	mov	r0, #1442840576	; 0x56000000
3000198c:	e2800054 	add	r0, r0, #84	; 0x54
30001990:	e3a01020 	mov	r1, #32	; 0x20
30001994:	e3a02000 	mov	r2, #0	; 0x0
30001998:	eb000ec0 	bl	300054a0 <gpio_set>
3000199c:	e89da808 	ldmia	sp, {r3, fp, sp, pc}

300019a0 <int_0_handle_irq>:
300019a0:	e1a0c00d 	mov	ip, sp
300019a4:	e92dd800 	stmdb	sp!, {fp, ip, lr, pc}
300019a8:	e24cb004 	sub	fp, ip, #4	; 0x4
300019ac:	e24dd004 	sub	sp, sp, #4	; 0x4
300019b0:	e3a03456 	mov	r3, #1442840576	; 0x56000000
300019b4:	e2833054 	add	r3, r3, #84	; 0x54
300019b8:	e5933000 	ldr	r3, [r3]
300019bc:	e50b3010 	str	r3, [fp, #-16]
300019c0:	e51b3010 	ldr	r3, [fp, #-16]
300019c4:	e2033001 	and	r3, r3, #1	; 0x1
300019c8:	e3530000 	cmp	r3, #0	; 0x0
300019cc:	0a000005 	beq	300019e8 <int_0_handle_irq+0x48>
300019d0:	e3a00456 	mov	r0, #1442840576	; 0x56000000
300019d4:	e2800054 	add	r0, r0, #84	; 0x54
300019d8:	e3a01040 	mov	r1, #64	; 0x40
300019dc:	e3a02040 	mov	r2, #64	; 0x40
300019e0:	eb000eae 	bl	300054a0 <gpio_set>
300019e4:	ea000004 	b	300019fc <int_0_handle_irq+0x5c>
300019e8:	e3a00456 	mov	r0, #1442840576	; 0x56000000
300019ec:	e2800054 	add	r0, r0, #84	; 0x54
300019f0:	e3a01040 	mov	r1, #64	; 0x40
300019f4:	e3a02000 	mov	r2, #0	; 0x0
300019f8:	eb000ea8 	bl	300054a0 <gpio_set>
300019fc:	e89da808 	ldmia	sp, {r3, fp, sp, pc}

30001a00 <init_key_st>:
30001a00:	e1a0c00d 	mov	ip, sp
30001a04:	e92dd800 	stmdb	sp!, {fp, ip, lr, pc}
30001a08:	e24cb004 	sub	fp, ip, #4	; 0x4
30001a0c:	e24dd00c 	sub	sp, sp, #12	; 0xc
30001a10:	e50b0010 	str	r0, [fp, #-16]
30001a14:	e50b1014 	str	r1, [fp, #-20]
30001a18:	e50b2018 	str	r2, [fp, #-24]
30001a1c:	e59f2050 	ldr	r2, [pc, #80]	; 30001a74 <.text+0x1a74>
30001a20:	e51b3010 	ldr	r3, [fp, #-16]
30001a24:	e3a01008 	mov	r1, #8	; 0x8
30001a28:	e1a03203 	mov	r3, r3, lsl #4
30001a2c:	e0833002 	add	r3, r3, r2
30001a30:	e0832001 	add	r2, r3, r1
30001a34:	e51b3014 	ldr	r3, [fp, #-20]
30001a38:	e5823000 	str	r3, [r2]
30001a3c:	e59f2030 	ldr	r2, [pc, #48]	; 30001a74 <.text+0x1a74>
30001a40:	e51b3010 	ldr	r3, [fp, #-16]
30001a44:	e3a0100c 	mov	r1, #12	; 0xc
30001a48:	e1a03203 	mov	r3, r3, lsl #4
30001a4c:	e0833002 	add	r3, r3, r2
30001a50:	e0832001 	add	r2, r3, r1
30001a54:	e51b3018 	ldr	r3, [fp, #-24]
30001a58:	e5823000 	str	r3, [r2]
30001a5c:	e59f1010 	ldr	r1, [pc, #16]	; 30001a74 <.text+0x1a74>
30001a60:	e51b2010 	ldr	r2, [fp, #-16]
30001a64:	e3a03000 	mov	r3, #0	; 0x0
30001a68:	e7813202 	str	r3, [r1, r2, lsl #4]
30001a6c:	e24bd00c 	sub	sp, fp, #12	; 0xc
30001a70:	e89da800 	ldmia	sp, {fp, sp, pc}
30001a74:	30007a00 	andcc	r7, r0, r0, lsl #20

30001a78 <key_config>:
30001a78:	e1a0c00d 	mov	ip, sp
30001a7c:	e92dd800 	stmdb	sp!, {fp, ip, lr, pc}
30001a80:	e24cb004 	sub	fp, ip, #4	; 0x4
30001a84:	e24dd004 	sub	sp, sp, #4	; 0x4
30001a88:	e3a00000 	mov	r0, #0	; 0x0
30001a8c:	e3a01456 	mov	r1, #1442840576	; 0x56000000
30001a90:	e2811054 	add	r1, r1, #84	; 0x54
30001a94:	e3a02000 	mov	r2, #0	; 0x0
30001a98:	ebffffd8 	bl	30001a00 <init_key_st>
30001a9c:	e3a00001 	mov	r0, #1	; 0x1
30001aa0:	e3a01456 	mov	r1, #1442840576	; 0x56000000
30001aa4:	e2811054 	add	r1, r1, #84	; 0x54
30001aa8:	e3a02002 	mov	r2, #2	; 0x2
30001aac:	ebffffd3 	bl	30001a00 <init_key_st>
30001ab0:	e3a00002 	mov	r0, #2	; 0x2
30001ab4:	e3a01456 	mov	r1, #1442840576	; 0x56000000
30001ab8:	e2811064 	add	r1, r1, #100	; 0x64
30001abc:	e3a02003 	mov	r2, #3	; 0x3
30001ac0:	ebffffce 	bl	30001a00 <init_key_st>
30001ac4:	e3a00456 	mov	r0, #1442840576	; 0x56000000
30001ac8:	e2800050 	add	r0, r0, #80	; 0x50
30001acc:	e3a01033 	mov	r1, #51	; 0x33
30001ad0:	e3a02022 	mov	r2, #34	; 0x22
30001ad4:	eb000e71 	bl	300054a0 <gpio_set>
30001ad8:	e1a03000 	mov	r3, r0
30001adc:	e3730001 	cmn	r3, #1	; 0x1
30001ae0:	1a000002 	bne	30001af0 <key_config+0x78>
30001ae4:	e3e03000 	mvn	r3, #0	; 0x0
30001ae8:	e50b3010 	str	r3, [fp, #-16]
30001aec:	ea000046 	b	30001c0c <key_config+0x194>
30001af0:	e3a00456 	mov	r0, #1442840576	; 0x56000000
30001af4:	e2800060 	add	r0, r0, #96	; 0x60
30001af8:	e3a01503 	mov	r1, #12582912	; 0xc00000
30001afc:	e28110c0 	add	r1, r1, #192	; 0xc0
30001b00:	e3a02502 	mov	r2, #8388608	; 0x800000
30001b04:	e2822080 	add	r2, r2, #128	; 0x80
30001b08:	eb000e64 	bl	300054a0 <gpio_set>
30001b0c:	e1a03000 	mov	r3, r0
30001b10:	e3730001 	cmn	r3, #1	; 0x1
30001b14:	1a000002 	bne	30001b24 <key_config+0xac>
30001b18:	e3e03000 	mvn	r3, #0	; 0x0
30001b1c:	e50b3010 	str	r3, [fp, #-16]
30001b20:	ea000039 	b	30001c0c <key_config+0x194>
30001b24:	e3a00456 	mov	r0, #1442840576	; 0x56000000
30001b28:	e2800088 	add	r0, r0, #136	; 0x88
30001b2c:	e3a01c07 	mov	r1, #1792	; 0x700
30001b30:	e2811007 	add	r1, r1, #7	; 0x7
30001b34:	e3a02c07 	mov	r2, #1792	; 0x700
30001b38:	e2822007 	add	r2, r2, #7	; 0x7
30001b3c:	eb000e57 	bl	300054a0 <gpio_set>
30001b40:	e1a03000 	mov	r3, r0
30001b44:	e3730001 	cmn	r3, #1	; 0x1
30001b48:	1a000002 	bne	30001b58 <key_config+0xe0>
30001b4c:	e3e03000 	mvn	r3, #0	; 0x0
30001b50:	e50b3010 	str	r3, [fp, #-16]
30001b54:	ea00002c 	b	30001c0c <key_config+0x194>
30001b58:	e3a00456 	mov	r0, #1442840576	; 0x56000000
30001b5c:	e280008c 	add	r0, r0, #140	; 0x8c
30001b60:	e3a01a07 	mov	r1, #28672	; 0x7000
30001b64:	e3a02a07 	mov	r2, #28672	; 0x7000
30001b68:	eb000e4c 	bl	300054a0 <gpio_set>
30001b6c:	e1a03000 	mov	r3, r0
30001b70:	e3730001 	cmn	r3, #1	; 0x1
30001b74:	1a000002 	bne	30001b84 <key_config+0x10c>
30001b78:	e3e03000 	mvn	r3, #0	; 0x0
30001b7c:	e50b3010 	str	r3, [fp, #-16]
30001b80:	ea000021 	b	30001c0c <key_config+0x194>
30001b84:	e3a00456 	mov	r0, #1442840576	; 0x56000000
30001b88:	e2800090 	add	r0, r0, #144	; 0x90
30001b8c:	e3a01a07 	mov	r1, #28672	; 0x7000
30001b90:	e3a02a07 	mov	r2, #28672	; 0x7000
30001b94:	eb000e41 	bl	300054a0 <gpio_set>
30001b98:	e1a03000 	mov	r3, r0
30001b9c:	e3730001 	cmn	r3, #1	; 0x1
30001ba0:	1a000002 	bne	30001bb0 <key_config+0x138>
30001ba4:	e3e03000 	mvn	r3, #0	; 0x0
30001ba8:	e50b3010 	str	r3, [fp, #-16]
30001bac:	ea000016 	b	30001c0c <key_config+0x194>
30001bb0:	e3a00456 	mov	r0, #1442840576	; 0x56000000
30001bb4:	e28000a4 	add	r0, r0, #164	; 0xa4
30001bb8:	e3a01702 	mov	r1, #524288	; 0x80000
30001bbc:	e2811b02 	add	r1, r1, #2048	; 0x800
30001bc0:	e3a02000 	mov	r2, #0	; 0x0
30001bc4:	eb000e35 	bl	300054a0 <gpio_set>
30001bc8:	e1a03000 	mov	r3, r0
30001bcc:	e3730001 	cmn	r3, #1	; 0x1
30001bd0:	1a000002 	bne	30001be0 <key_config+0x168>
30001bd4:	e3e03000 	mvn	r3, #0	; 0x0
30001bd8:	e50b3010 	str	r3, [fp, #-16]
30001bdc:	ea00000a 	b	30001c0c <key_config+0x194>
30001be0:	e3a00000 	mov	r0, #0	; 0x0
30001be4:	e59f1028 	ldr	r1, [pc, #40]	; 30001c14 <.text+0x1c14>
30001be8:	eb000e17 	bl	3000544c <register_irq>
30001bec:	e3a00002 	mov	r0, #2	; 0x2
30001bf0:	e59f1020 	ldr	r1, [pc, #32]	; 30001c18 <.text+0x1c18>
30001bf4:	eb000e14 	bl	3000544c <register_irq>
30001bf8:	e3a00005 	mov	r0, #5	; 0x5
30001bfc:	e59f1018 	ldr	r1, [pc, #24]	; 30001c1c <.text+0x1c1c>
30001c00:	eb000e11 	bl	3000544c <register_irq>
30001c04:	e3a03000 	mov	r3, #0	; 0x0
30001c08:	e50b3010 	str	r3, [fp, #-16]
30001c0c:	e51b0010 	ldr	r0, [fp, #-16]
30001c10:	e89da808 	ldmia	sp, {r3, fp, sp, pc}
30001c14:	300019a0 	andcc	r1, r0, r0, lsr #19
30001c18:	30001940 	andcc	r1, r0, r0, asr #18
30001c1c:	3000185c 	andcc	r1, r0, ip, asr r8

30001c20 <get_event>:
30001c20:	e1a0c00d 	mov	ip, sp
30001c24:	e92dd830 	stmdb	sp!, {r4, r5, fp, ip, lr, pc}
30001c28:	e24cb004 	sub	fp, ip, #4	; 0x4
30001c2c:	e24dd00c 	sub	sp, sp, #12	; 0xc
30001c30:	e3a03000 	mov	r3, #0	; 0x0
30001c34:	e50b3018 	str	r3, [fp, #-24]
30001c38:	e3a03000 	mov	r3, #0	; 0x0
30001c3c:	e50b3018 	str	r3, [fp, #-24]
30001c40:	e51b3018 	ldr	r3, [fp, #-24]
30001c44:	e3530002 	cmp	r3, #2	; 0x2
30001c48:	ca00002f 	bgt	30001d0c <get_event+0xec>
30001c4c:	e59f40cc 	ldr	r4, [pc, #204]	; 30001d20 <.text+0x1d20>
30001c50:	e51b5018 	ldr	r5, [fp, #-24]
30001c54:	e59f20c4 	ldr	r2, [pc, #196]	; 30001d20 <.text+0x1d20>
30001c58:	e51b3018 	ldr	r3, [fp, #-24]
30001c5c:	e3a01008 	mov	r1, #8	; 0x8
30001c60:	e1a03203 	mov	r3, r3, lsl #4
30001c64:	e0833002 	add	r3, r3, r2
30001c68:	e0830001 	add	r0, r3, r1
30001c6c:	e59f20ac 	ldr	r2, [pc, #172]	; 30001d20 <.text+0x1d20>
30001c70:	e51b3018 	ldr	r3, [fp, #-24]
30001c74:	e3a0100c 	mov	r1, #12	; 0xc
30001c78:	e1a03203 	mov	r3, r3, lsl #4
30001c7c:	e0833002 	add	r3, r3, r2
30001c80:	e0833001 	add	r3, r3, r1
30001c84:	e5900000 	ldr	r0, [r0]
30001c88:	e5931000 	ldr	r1, [r3]
30001c8c:	eb000024 	bl	30001d24 <get_gpio>
30001c90:	e1a02000 	mov	r2, r0
30001c94:	e7943205 	ldr	r3, [r4, r5, lsl #4]
30001c98:	e1530002 	cmp	r3, r2
30001c9c:	1a000016 	bne	30001cfc <get_event+0xdc>
30001ca0:	e59f1078 	ldr	r1, [pc, #120]	; 30001d20 <.text+0x1d20>
30001ca4:	e51b0018 	ldr	r0, [fp, #-24]
30001ca8:	e59f2070 	ldr	r2, [pc, #112]	; 30001d20 <.text+0x1d20>
30001cac:	e51b3018 	ldr	r3, [fp, #-24]
30001cb0:	e7923203 	ldr	r3, [r2, r3, lsl #4]
30001cb4:	e3530000 	cmp	r3, #0	; 0x0
30001cb8:	13a03000 	movne	r3, #0	; 0x0
30001cbc:	03a03001 	moveq	r3, #1	; 0x1
30001cc0:	e7813200 	str	r3, [r1, r0, lsl #4]
30001cc4:	e51b3018 	ldr	r3, [fp, #-24]
30001cc8:	e2833001 	add	r3, r3, #1	; 0x1
30001ccc:	e50b3020 	str	r3, [fp, #-32]
30001cd0:	e59f2048 	ldr	r2, [pc, #72]	; 30001d20 <.text+0x1d20>
30001cd4:	e51b3018 	ldr	r3, [fp, #-24]
30001cd8:	e7923203 	ldr	r3, [r2, r3, lsl #4]
30001cdc:	e3530000 	cmp	r3, #0	; 0x0
30001ce0:	1a000002 	bne	30001cf0 <get_event+0xd0>
30001ce4:	e51b3020 	ldr	r3, [fp, #-32]
30001ce8:	e2633000 	rsb	r3, r3, #0	; 0x0
30001cec:	e50b3020 	str	r3, [fp, #-32]
30001cf0:	e51b3020 	ldr	r3, [fp, #-32]
30001cf4:	e50b301c 	str	r3, [fp, #-28]
30001cf8:	ea000005 	b	30001d14 <get_event+0xf4>
30001cfc:	e51b3018 	ldr	r3, [fp, #-24]
30001d00:	e2833001 	add	r3, r3, #1	; 0x1
30001d04:	e50b3018 	str	r3, [fp, #-24]
30001d08:	eaffffcc 	b	30001c40 <get_event+0x20>
30001d0c:	e3a03000 	mov	r3, #0	; 0x0
30001d10:	e50b301c 	str	r3, [fp, #-28]
30001d14:	e51b001c 	ldr	r0, [fp, #-28]
30001d18:	e24bd014 	sub	sp, fp, #20	; 0x14
30001d1c:	e89da830 	ldmia	sp, {r4, r5, fp, sp, pc}
30001d20:	30007a00 	andcc	r7, r0, r0, lsl #20

30001d24 <get_gpio>:
30001d24:	e1a0c00d 	mov	ip, sp
30001d28:	e92dd800 	stmdb	sp!, {fp, ip, lr, pc}
30001d2c:	e24cb004 	sub	fp, ip, #4	; 0x4
30001d30:	e24dd008 	sub	sp, sp, #8	; 0x8
30001d34:	e50b0010 	str	r0, [fp, #-16]
30001d38:	e50b1014 	str	r1, [fp, #-20]
30001d3c:	e51b3010 	ldr	r3, [fp, #-16]
30001d40:	e5932000 	ldr	r2, [r3]
30001d44:	e51b3014 	ldr	r3, [fp, #-20]
30001d48:	e1a03332 	mov	r3, r2, lsr r3
30001d4c:	e2033001 	and	r3, r3, #1	; 0x1
30001d50:	e1a00003 	mov	r0, r3
30001d54:	e24bd00c 	sub	sp, fp, #12	; 0xc
30001d58:	e89da800 	ldmia	sp, {fp, sp, pc}

30001d5c <key_read>:
30001d5c:	e1a0c00d 	mov	ip, sp
30001d60:	e92dd800 	stmdb	sp!, {fp, ip, lr, pc}
30001d64:	e24cb004 	sub	fp, ip, #4	; 0x4
30001d68:	e24dd010 	sub	sp, sp, #16	; 0x10
30001d6c:	e50b0010 	str	r0, [fp, #-16]
30001d70:	ebffffaa 	bl	30001c20 <get_event>
30001d74:	e1a03000 	mov	r3, r0
30001d78:	e50b3014 	str	r3, [fp, #-20]
30001d7c:	e51b3014 	ldr	r3, [fp, #-20]
30001d80:	e3530000 	cmp	r3, #0	; 0x0
30001d84:	1a000000 	bne	30001d8c <key_read+0x30>
30001d88:	ea000022 	b	30001e18 <key_read+0xbc>
30001d8c:	e51b3014 	ldr	r3, [fp, #-20]
30001d90:	e3530000 	cmp	r3, #0	; 0x0
30001d94:	da000008 	ble	30001dbc <key_read+0x60>
30001d98:	e59f2154 	ldr	r2, [pc, #340]	; 30001ef4 <.text+0x1ef4>
30001d9c:	e51b3014 	ldr	r3, [fp, #-20]
30001da0:	e3e0100b 	mvn	r1, #11	; 0xb
30001da4:	e1a03203 	mov	r3, r3, lsl #4
30001da8:	e0833002 	add	r3, r3, r2
30001dac:	e0832001 	add	r2, r3, r1
30001db0:	e3a03000 	mov	r3, #0	; 0x0
30001db4:	e5823000 	str	r3, [r2]
30001db8:	ea000016 	b	30001e18 <key_read+0xbc>
30001dbc:	e51b3014 	ldr	r3, [fp, #-20]
30001dc0:	e3530000 	cmp	r3, #0	; 0x0
30001dc4:	aa000013 	bge	30001e18 <key_read+0xbc>
30001dc8:	e51b3010 	ldr	r3, [fp, #-16]
30001dcc:	e3530000 	cmp	r3, #0	; 0x0
30001dd0:	1a000010 	bne	30001e18 <key_read+0xbc>
30001dd4:	e59f1118 	ldr	r1, [pc, #280]	; 30001ef4 <.text+0x1ef4>
30001dd8:	e51b2014 	ldr	r2, [fp, #-20]
30001ddc:	e3e0000b 	mvn	r0, #11	; 0xb
30001de0:	e1a03002 	mov	r3, r2
30001de4:	e1a03e03 	mov	r3, r3, lsl #28
30001de8:	e0623003 	rsb	r3, r2, r3
30001dec:	e1a03203 	mov	r3, r3, lsl #4
30001df0:	e0833001 	add	r3, r3, r1
30001df4:	e0833000 	add	r3, r3, r0
30001df8:	e5933000 	ldr	r3, [r3]
30001dfc:	e3530009 	cmp	r3, #9	; 0x9
30001e00:	da000004 	ble	30001e18 <key_read+0xbc>
30001e04:	e51b3014 	ldr	r3, [fp, #-20]
30001e08:	e2633000 	rsb	r3, r3, #0	; 0x0
30001e0c:	e2433001 	sub	r3, r3, #1	; 0x1
30001e10:	e50b301c 	str	r3, [fp, #-28]
30001e14:	ea000033 	b	30001ee8 <key_read+0x18c>
30001e18:	e3a03000 	mov	r3, #0	; 0x0
30001e1c:	e50b3018 	str	r3, [fp, #-24]
30001e20:	e51b3018 	ldr	r3, [fp, #-24]
30001e24:	e3530002 	cmp	r3, #2	; 0x2
30001e28:	ca00002e 	bgt	30001ee8 <key_read+0x18c>
30001e2c:	e59f30c0 	ldr	r3, [pc, #192]	; 30001ef4 <.text+0x1ef4>
30001e30:	e51b2018 	ldr	r2, [fp, #-24]
30001e34:	e7933202 	ldr	r3, [r3, r2, lsl #4]
30001e38:	e3530000 	cmp	r3, #0	; 0x0
30001e3c:	0a000025 	beq	30001ed8 <key_read+0x17c>
30001e40:	e59f20ac 	ldr	r2, [pc, #172]	; 30001ef4 <.text+0x1ef4>
30001e44:	e51b3018 	ldr	r3, [fp, #-24]
30001e48:	e3a01004 	mov	r1, #4	; 0x4
30001e4c:	e1a03203 	mov	r3, r3, lsl #4
30001e50:	e0833002 	add	r3, r3, r2
30001e54:	e0830001 	add	r0, r3, r1
30001e58:	e59f2094 	ldr	r2, [pc, #148]	; 30001ef4 <.text+0x1ef4>
30001e5c:	e51b3018 	ldr	r3, [fp, #-24]
30001e60:	e3a01004 	mov	r1, #4	; 0x4
30001e64:	e1a03203 	mov	r3, r3, lsl #4
30001e68:	e0833002 	add	r3, r3, r2
30001e6c:	e0833001 	add	r3, r3, r1
30001e70:	e5933000 	ldr	r3, [r3]
30001e74:	e2833001 	add	r3, r3, #1	; 0x1
30001e78:	e5803000 	str	r3, [r0]
30001e7c:	e51b3010 	ldr	r3, [fp, #-16]
30001e80:	e3530000 	cmp	r3, #0	; 0x0
30001e84:	0a000013 	beq	30001ed8 <key_read+0x17c>
30001e88:	e59f2064 	ldr	r2, [pc, #100]	; 30001ef4 <.text+0x1ef4>
30001e8c:	e51b3018 	ldr	r3, [fp, #-24]
30001e90:	e3a01004 	mov	r1, #4	; 0x4
30001e94:	e1a03203 	mov	r3, r3, lsl #4
30001e98:	e0833002 	add	r3, r3, r2
30001e9c:	e0833001 	add	r3, r3, r1
30001ea0:	e5933000 	ldr	r3, [r3]
30001ea4:	e3530009 	cmp	r3, #9	; 0x9
30001ea8:	da00000a 	ble	30001ed8 <key_read+0x17c>
30001eac:	e59f2040 	ldr	r2, [pc, #64]	; 30001ef4 <.text+0x1ef4>
30001eb0:	e51b3018 	ldr	r3, [fp, #-24]
30001eb4:	e3a01004 	mov	r1, #4	; 0x4
30001eb8:	e1a03203 	mov	r3, r3, lsl #4
30001ebc:	e0833002 	add	r3, r3, r2
30001ec0:	e0832001 	add	r2, r3, r1
30001ec4:	e3a03000 	mov	r3, #0	; 0x0
30001ec8:	e5823000 	str	r3, [r2]
30001ecc:	e51b3018 	ldr	r3, [fp, #-24]
30001ed0:	e50b301c 	str	r3, [fp, #-28]
30001ed4:	ea000003 	b	30001ee8 <key_read+0x18c>
30001ed8:	e51b3018 	ldr	r3, [fp, #-24]
30001edc:	e2833001 	add	r3, r3, #1	; 0x1
30001ee0:	e50b3018 	str	r3, [fp, #-24]
30001ee4:	eaffffcd 	b	30001e20 <key_read+0xc4>
30001ee8:	e51b001c 	ldr	r0, [fp, #-28]
30001eec:	e24bd00c 	sub	sp, fp, #12	; 0xc
30001ef0:	e89da800 	ldmia	sp, {fp, sp, pc}
30001ef4:	30007a00 	andcc	r7, r0, r0, lsl #20

30001ef8 <draw_circle>:
30001ef8:	e1a0c00d 	mov	ip, sp
30001efc:	e92dd800 	stmdb	sp!, {fp, ip, lr, pc}
30001f00:	e24cb004 	sub	fp, ip, #4	; 0x4
30001f04:	e24dd01c 	sub	sp, sp, #28	; 0x1c
30001f08:	e50b0010 	str	r0, [fp, #-16]
30001f0c:	e50b1014 	str	r1, [fp, #-20]
30001f10:	e50b2018 	str	r2, [fp, #-24]
30001f14:	e50b301c 	str	r3, [fp, #-28]
30001f18:	e3a03000 	mov	r3, #0	; 0x0
30001f1c:	e50b3020 	str	r3, [fp, #-32]
30001f20:	e51b3018 	ldr	r3, [fp, #-24]
30001f24:	e50b3024 	str	r3, [fp, #-36]
30001f28:	e51b2024 	ldr	r2, [fp, #-36]
30001f2c:	e51b3024 	ldr	r3, [fp, #-36]
30001f30:	e0020293 	mul	r2, r3, r2
30001f34:	e1a03002 	mov	r3, r2
30001f38:	e1a03103 	mov	r3, r3, lsl #2
30001f3c:	e0833002 	add	r3, r3, r2
30001f40:	e1a03083 	mov	r3, r3, lsl #1
30001f44:	e0833002 	add	r3, r3, r2
30001f48:	e1a01083 	mov	r1, r3, lsl #1
30001f4c:	e51b2018 	ldr	r2, [fp, #-24]
30001f50:	e51b3018 	ldr	r3, [fp, #-24]
30001f54:	e0030392 	mul	r3, r2, r3
30001f58:	e1510003 	cmp	r1, r3
30001f5c:	ba000068 	blt	30002104 <draw_circle+0x20c>
30001f60:	e51b2010 	ldr	r2, [fp, #-16]
30001f64:	e51b3020 	ldr	r3, [fp, #-32]
30001f68:	e0821003 	add	r1, r2, r3
30001f6c:	e51b2014 	ldr	r2, [fp, #-20]
30001f70:	e51b3024 	ldr	r3, [fp, #-36]
30001f74:	e0633002 	rsb	r3, r3, r2
30001f78:	e1a00001 	mov	r0, r1
30001f7c:	e1a01003 	mov	r1, r3
30001f80:	e51b201c 	ldr	r2, [fp, #-28]
30001f84:	eb0001f7 	bl	30002768 <fb_put_pixel>
30001f88:	e51b2010 	ldr	r2, [fp, #-16]
30001f8c:	e51b3020 	ldr	r3, [fp, #-32]
30001f90:	e0631002 	rsb	r1, r3, r2
30001f94:	e51b2014 	ldr	r2, [fp, #-20]
30001f98:	e51b3024 	ldr	r3, [fp, #-36]
30001f9c:	e0633002 	rsb	r3, r3, r2
30001fa0:	e1a00001 	mov	r0, r1
30001fa4:	e1a01003 	mov	r1, r3
30001fa8:	e51b201c 	ldr	r2, [fp, #-28]
30001fac:	eb0001ed 	bl	30002768 <fb_put_pixel>
30001fb0:	e51b2010 	ldr	r2, [fp, #-16]
30001fb4:	e51b3020 	ldr	r3, [fp, #-32]
30001fb8:	e0631002 	rsb	r1, r3, r2
30001fbc:	e51b2014 	ldr	r2, [fp, #-20]
30001fc0:	e51b3024 	ldr	r3, [fp, #-36]
30001fc4:	e0823003 	add	r3, r2, r3
30001fc8:	e1a00001 	mov	r0, r1
30001fcc:	e1a01003 	mov	r1, r3
30001fd0:	e51b201c 	ldr	r2, [fp, #-28]
30001fd4:	eb0001e3 	bl	30002768 <fb_put_pixel>
30001fd8:	e51b2010 	ldr	r2, [fp, #-16]
30001fdc:	e51b3020 	ldr	r3, [fp, #-32]
30001fe0:	e0821003 	add	r1, r2, r3
30001fe4:	e51b2014 	ldr	r2, [fp, #-20]
30001fe8:	e51b3024 	ldr	r3, [fp, #-36]
30001fec:	e0823003 	add	r3, r2, r3
30001ff0:	e1a00001 	mov	r0, r1
30001ff4:	e1a01003 	mov	r1, r3
30001ff8:	e51b201c 	ldr	r2, [fp, #-28]
30001ffc:	eb0001d9 	bl	30002768 <fb_put_pixel>
30002000:	e51b2010 	ldr	r2, [fp, #-16]
30002004:	e51b3024 	ldr	r3, [fp, #-36]
30002008:	e0821003 	add	r1, r2, r3
3000200c:	e51b2014 	ldr	r2, [fp, #-20]
30002010:	e51b3020 	ldr	r3, [fp, #-32]
30002014:	e0823003 	add	r3, r2, r3
30002018:	e1a00001 	mov	r0, r1
3000201c:	e1a01003 	mov	r1, r3
30002020:	e51b201c 	ldr	r2, [fp, #-28]
30002024:	eb0001cf 	bl	30002768 <fb_put_pixel>
30002028:	e51b2010 	ldr	r2, [fp, #-16]
3000202c:	e51b3024 	ldr	r3, [fp, #-36]
30002030:	e0821003 	add	r1, r2, r3
30002034:	e51b2014 	ldr	r2, [fp, #-20]
30002038:	e51b3020 	ldr	r3, [fp, #-32]
3000203c:	e0633002 	rsb	r3, r3, r2
30002040:	e1a00001 	mov	r0, r1
30002044:	e1a01003 	mov	r1, r3
30002048:	e51b201c 	ldr	r2, [fp, #-28]
3000204c:	eb0001c5 	bl	30002768 <fb_put_pixel>
30002050:	e51b2010 	ldr	r2, [fp, #-16]
30002054:	e51b3024 	ldr	r3, [fp, #-36]
30002058:	e0631002 	rsb	r1, r3, r2
3000205c:	e51b2014 	ldr	r2, [fp, #-20]
30002060:	e51b3020 	ldr	r3, [fp, #-32]
30002064:	e0633002 	rsb	r3, r3, r2
30002068:	e1a00001 	mov	r0, r1
3000206c:	e1a01003 	mov	r1, r3
30002070:	e51b201c 	ldr	r2, [fp, #-28]
30002074:	eb0001bb 	bl	30002768 <fb_put_pixel>
30002078:	e51b2010 	ldr	r2, [fp, #-16]
3000207c:	e51b3024 	ldr	r3, [fp, #-36]
30002080:	e0631002 	rsb	r1, r3, r2
30002084:	e51b2014 	ldr	r2, [fp, #-20]
30002088:	e51b3020 	ldr	r3, [fp, #-32]
3000208c:	e0823003 	add	r3, r2, r3
30002090:	e1a00001 	mov	r0, r1
30002094:	e1a01003 	mov	r1, r3
30002098:	e51b201c 	ldr	r2, [fp, #-28]
3000209c:	eb0001b1 	bl	30002768 <fb_put_pixel>
300020a0:	e51b3020 	ldr	r3, [fp, #-32]
300020a4:	e2833001 	add	r3, r3, #1	; 0x1
300020a8:	e50b3020 	str	r3, [fp, #-32]
300020ac:	e51b2020 	ldr	r2, [fp, #-32]
300020b0:	e51b3020 	ldr	r3, [fp, #-32]
300020b4:	e0010293 	mul	r1, r3, r2
300020b8:	e51b2024 	ldr	r2, [fp, #-36]
300020bc:	e51b3024 	ldr	r3, [fp, #-36]
300020c0:	e0030392 	mul	r3, r2, r3
300020c4:	e0811003 	add	r1, r1, r3
300020c8:	e51b2018 	ldr	r2, [fp, #-24]
300020cc:	e51b3018 	ldr	r3, [fp, #-24]
300020d0:	e0030392 	mul	r3, r2, r3
300020d4:	e0633001 	rsb	r3, r3, r1
300020d8:	e50b3028 	str	r3, [fp, #-40]
300020dc:	e51b3028 	ldr	r3, [fp, #-40]
300020e0:	e3530000 	cmp	r3, #0	; 0x0
300020e4:	daffff8f 	ble	30001f28 <draw_circle+0x30>
300020e8:	e51b3024 	ldr	r3, [fp, #-36]
300020ec:	e2433001 	sub	r3, r3, #1	; 0x1
300020f0:	e50b3024 	str	r3, [fp, #-36]
300020f4:	e51b3020 	ldr	r3, [fp, #-32]
300020f8:	e2433001 	sub	r3, r3, #1	; 0x1
300020fc:	e50b3020 	str	r3, [fp, #-32]
30002100:	eaffff88 	b	30001f28 <draw_circle+0x30>
30002104:	e24bd00c 	sub	sp, fp, #12	; 0xc
30002108:	e89da800 	ldmia	sp, {fp, sp, pc}

3000210c <draw_line>:
3000210c:	e1a0c00d 	mov	ip, sp
30002110:	e92dd800 	stmdb	sp!, {fp, ip, lr, pc}
30002114:	e24cb004 	sub	fp, ip, #4	; 0x4
30002118:	e24dd01c 	sub	sp, sp, #28	; 0x1c
3000211c:	e50b0010 	str	r0, [fp, #-16]
30002120:	e50b1014 	str	r1, [fp, #-20]
30002124:	e50b2018 	str	r2, [fp, #-24]
30002128:	e50b301c 	str	r3, [fp, #-28]
3000212c:	e51b2018 	ldr	r2, [fp, #-24]
30002130:	e51b3010 	ldr	r3, [fp, #-16]
30002134:	e0633002 	rsb	r3, r3, r2
30002138:	e50b3020 	str	r3, [fp, #-32]
3000213c:	e51b201c 	ldr	r2, [fp, #-28]
30002140:	e51b3014 	ldr	r3, [fp, #-20]
30002144:	e0633002 	rsb	r3, r3, r2
30002148:	e50b3024 	str	r3, [fp, #-36]
3000214c:	e51b3020 	ldr	r3, [fp, #-32]
30002150:	e3530000 	cmp	r3, #0	; 0x0
30002154:	ba000095 	blt	300023b0 <draw_line+0x2a4>
30002158:	e51b3024 	ldr	r3, [fp, #-36]
3000215c:	e3530000 	cmp	r3, #0	; 0x0
30002160:	ba000047 	blt	30002284 <draw_line+0x178>
30002164:	e51b2020 	ldr	r2, [fp, #-32]
30002168:	e51b3024 	ldr	r3, [fp, #-36]
3000216c:	e1520003 	cmp	r2, r3
30002170:	ba000021 	blt	300021fc <draw_line+0xf0>
30002174:	e51b2020 	ldr	r2, [fp, #-32]
30002178:	e1a03fc2 	mov	r3, r2, asr #31
3000217c:	e1a03fa3 	mov	r3, r3, lsr #31
30002180:	e0823003 	add	r3, r2, r3
30002184:	e1a020c3 	mov	r2, r3, asr #1
30002188:	e51b3024 	ldr	r3, [fp, #-36]
3000218c:	e0623003 	rsb	r3, r2, r3
30002190:	e50b3028 	str	r3, [fp, #-40]
30002194:	e51b2010 	ldr	r2, [fp, #-16]
30002198:	e51b3018 	ldr	r3, [fp, #-24]
3000219c:	e1520003 	cmp	r2, r3
300021a0:	ca00011b 	bgt	30002614 <draw_line+0x508>
300021a4:	e51b0010 	ldr	r0, [fp, #-16]
300021a8:	e51b1014 	ldr	r1, [fp, #-20]
300021ac:	e59b2004 	ldr	r2, [fp, #4]
300021b0:	eb00016c 	bl	30002768 <fb_put_pixel>
300021b4:	e51b3028 	ldr	r3, [fp, #-40]
300021b8:	e3530000 	cmp	r3, #0	; 0x0
300021bc:	da000006 	ble	300021dc <draw_line+0xd0>
300021c0:	e51b3014 	ldr	r3, [fp, #-20]
300021c4:	e2833001 	add	r3, r3, #1	; 0x1
300021c8:	e50b3014 	str	r3, [fp, #-20]
300021cc:	e51b2028 	ldr	r2, [fp, #-40]
300021d0:	e51b3020 	ldr	r3, [fp, #-32]
300021d4:	e0633002 	rsb	r3, r3, r2
300021d8:	e50b3028 	str	r3, [fp, #-40]
300021dc:	e51b3010 	ldr	r3, [fp, #-16]
300021e0:	e2833001 	add	r3, r3, #1	; 0x1
300021e4:	e50b3010 	str	r3, [fp, #-16]
300021e8:	e51b2028 	ldr	r2, [fp, #-40]
300021ec:	e51b3024 	ldr	r3, [fp, #-36]
300021f0:	e0823003 	add	r3, r2, r3
300021f4:	e50b3028 	str	r3, [fp, #-40]
300021f8:	eaffffe5 	b	30002194 <draw_line+0x88>
300021fc:	e51b2024 	ldr	r2, [fp, #-36]
30002200:	e1a03fc2 	mov	r3, r2, asr #31
30002204:	e1a03fa3 	mov	r3, r3, lsr #31
30002208:	e0823003 	add	r3, r2, r3
3000220c:	e1a020c3 	mov	r2, r3, asr #1
30002210:	e51b3020 	ldr	r3, [fp, #-32]
30002214:	e0623003 	rsb	r3, r2, r3
30002218:	e50b3028 	str	r3, [fp, #-40]
3000221c:	e51b2014 	ldr	r2, [fp, #-20]
30002220:	e51b301c 	ldr	r3, [fp, #-28]
30002224:	e1520003 	cmp	r2, r3
30002228:	ca0000f9 	bgt	30002614 <draw_line+0x508>
3000222c:	e51b0010 	ldr	r0, [fp, #-16]
30002230:	e51b1014 	ldr	r1, [fp, #-20]
30002234:	e59b2004 	ldr	r2, [fp, #4]
30002238:	eb00014a 	bl	30002768 <fb_put_pixel>
3000223c:	e51b3028 	ldr	r3, [fp, #-40]
30002240:	e3530000 	cmp	r3, #0	; 0x0
30002244:	da000006 	ble	30002264 <draw_line+0x158>
30002248:	e51b3010 	ldr	r3, [fp, #-16]
3000224c:	e2833001 	add	r3, r3, #1	; 0x1
30002250:	e50b3010 	str	r3, [fp, #-16]
30002254:	e51b2028 	ldr	r2, [fp, #-40]
30002258:	e51b3024 	ldr	r3, [fp, #-36]
3000225c:	e0633002 	rsb	r3, r3, r2
30002260:	e50b3028 	str	r3, [fp, #-40]
30002264:	e51b3014 	ldr	r3, [fp, #-20]
30002268:	e2833001 	add	r3, r3, #1	; 0x1
3000226c:	e50b3014 	str	r3, [fp, #-20]
30002270:	e51b2028 	ldr	r2, [fp, #-40]
30002274:	e51b3020 	ldr	r3, [fp, #-32]
30002278:	e0823003 	add	r3, r2, r3
3000227c:	e50b3028 	str	r3, [fp, #-40]
30002280:	eaffffe5 	b	3000221c <draw_line+0x110>
30002284:	e51b3024 	ldr	r3, [fp, #-36]
30002288:	e2633000 	rsb	r3, r3, #0	; 0x0
3000228c:	e50b3024 	str	r3, [fp, #-36]
30002290:	e51b2020 	ldr	r2, [fp, #-32]
30002294:	e51b3024 	ldr	r3, [fp, #-36]
30002298:	e1520003 	cmp	r2, r3
3000229c:	ba000021 	blt	30002328 <draw_line+0x21c>
300022a0:	e51b2020 	ldr	r2, [fp, #-32]
300022a4:	e1a03fc2 	mov	r3, r2, asr #31
300022a8:	e1a03fa3 	mov	r3, r3, lsr #31
300022ac:	e0823003 	add	r3, r2, r3
300022b0:	e1a020c3 	mov	r2, r3, asr #1
300022b4:	e51b3024 	ldr	r3, [fp, #-36]
300022b8:	e0623003 	rsb	r3, r2, r3
300022bc:	e50b3028 	str	r3, [fp, #-40]
300022c0:	e51b2010 	ldr	r2, [fp, #-16]
300022c4:	e51b3018 	ldr	r3, [fp, #-24]
300022c8:	e1520003 	cmp	r2, r3
300022cc:	ca0000d0 	bgt	30002614 <draw_line+0x508>
300022d0:	e51b0010 	ldr	r0, [fp, #-16]
300022d4:	e51b1014 	ldr	r1, [fp, #-20]
300022d8:	e59b2004 	ldr	r2, [fp, #4]
300022dc:	eb000121 	bl	30002768 <fb_put_pixel>
300022e0:	e51b3028 	ldr	r3, [fp, #-40]
300022e4:	e3530000 	cmp	r3, #0	; 0x0
300022e8:	da000006 	ble	30002308 <draw_line+0x1fc>
300022ec:	e51b3014 	ldr	r3, [fp, #-20]
300022f0:	e2433001 	sub	r3, r3, #1	; 0x1
300022f4:	e50b3014 	str	r3, [fp, #-20]
300022f8:	e51b2028 	ldr	r2, [fp, #-40]
300022fc:	e51b3020 	ldr	r3, [fp, #-32]
30002300:	e0633002 	rsb	r3, r3, r2
30002304:	e50b3028 	str	r3, [fp, #-40]
30002308:	e51b3010 	ldr	r3, [fp, #-16]
3000230c:	e2833001 	add	r3, r3, #1	; 0x1
30002310:	e50b3010 	str	r3, [fp, #-16]
30002314:	e51b2028 	ldr	r2, [fp, #-40]
30002318:	e51b3024 	ldr	r3, [fp, #-36]
3000231c:	e0823003 	add	r3, r2, r3
30002320:	e50b3028 	str	r3, [fp, #-40]
30002324:	eaffffe5 	b	300022c0 <draw_line+0x1b4>
30002328:	e51b2024 	ldr	r2, [fp, #-36]
3000232c:	e1a03fc2 	mov	r3, r2, asr #31
30002330:	e1a03fa3 	mov	r3, r3, lsr #31
30002334:	e0823003 	add	r3, r2, r3
30002338:	e1a020c3 	mov	r2, r3, asr #1
3000233c:	e51b3020 	ldr	r3, [fp, #-32]
30002340:	e0623003 	rsb	r3, r2, r3
30002344:	e50b3028 	str	r3, [fp, #-40]
30002348:	e51b2014 	ldr	r2, [fp, #-20]
3000234c:	e51b301c 	ldr	r3, [fp, #-28]
30002350:	e1520003 	cmp	r2, r3
30002354:	ba0000ae 	blt	30002614 <draw_line+0x508>
30002358:	e51b0010 	ldr	r0, [fp, #-16]
3000235c:	e51b1014 	ldr	r1, [fp, #-20]
30002360:	e59b2004 	ldr	r2, [fp, #4]
30002364:	eb0000ff 	bl	30002768 <fb_put_pixel>
30002368:	e51b3028 	ldr	r3, [fp, #-40]
3000236c:	e3530000 	cmp	r3, #0	; 0x0
30002370:	da000006 	ble	30002390 <draw_line+0x284>
30002374:	e51b3010 	ldr	r3, [fp, #-16]
30002378:	e2833001 	add	r3, r3, #1	; 0x1
3000237c:	e50b3010 	str	r3, [fp, #-16]
30002380:	e51b2028 	ldr	r2, [fp, #-40]
30002384:	e51b3024 	ldr	r3, [fp, #-36]
30002388:	e0633002 	rsb	r3, r3, r2
3000238c:	e50b3028 	str	r3, [fp, #-40]
30002390:	e51b3014 	ldr	r3, [fp, #-20]
30002394:	e2433001 	sub	r3, r3, #1	; 0x1
30002398:	e50b3014 	str	r3, [fp, #-20]
3000239c:	e51b2028 	ldr	r2, [fp, #-40]
300023a0:	e51b3020 	ldr	r3, [fp, #-32]
300023a4:	e0823003 	add	r3, r2, r3
300023a8:	e50b3028 	str	r3, [fp, #-40]
300023ac:	eaffffe5 	b	30002348 <draw_line+0x23c>
300023b0:	e51b3020 	ldr	r3, [fp, #-32]
300023b4:	e2633000 	rsb	r3, r3, #0	; 0x0
300023b8:	e50b3020 	str	r3, [fp, #-32]
300023bc:	e51b3024 	ldr	r3, [fp, #-36]
300023c0:	e3530000 	cmp	r3, #0	; 0x0
300023c4:	ba000047 	blt	300024e8 <draw_line+0x3dc>
300023c8:	e51b2020 	ldr	r2, [fp, #-32]
300023cc:	e51b3024 	ldr	r3, [fp, #-36]
300023d0:	e1520003 	cmp	r2, r3
300023d4:	ba000021 	blt	30002460 <draw_line+0x354>
300023d8:	e51b2020 	ldr	r2, [fp, #-32]
300023dc:	e1a03fc2 	mov	r3, r2, asr #31
300023e0:	e1a03fa3 	mov	r3, r3, lsr #31
300023e4:	e0823003 	add	r3, r2, r3
300023e8:	e1a020c3 	mov	r2, r3, asr #1
300023ec:	e51b3024 	ldr	r3, [fp, #-36]
300023f0:	e0623003 	rsb	r3, r2, r3
300023f4:	e50b3028 	str	r3, [fp, #-40]
300023f8:	e51b2010 	ldr	r2, [fp, #-16]
300023fc:	e51b3018 	ldr	r3, [fp, #-24]
30002400:	e1520003 	cmp	r2, r3
30002404:	ba000082 	blt	30002614 <draw_line+0x508>
30002408:	e51b0010 	ldr	r0, [fp, #-16]
3000240c:	e51b1014 	ldr	r1, [fp, #-20]
30002410:	e59b2004 	ldr	r2, [fp, #4]
30002414:	eb0000d3 	bl	30002768 <fb_put_pixel>
30002418:	e51b3028 	ldr	r3, [fp, #-40]
3000241c:	e3530000 	cmp	r3, #0	; 0x0
30002420:	da000006 	ble	30002440 <draw_line+0x334>
30002424:	e51b3014 	ldr	r3, [fp, #-20]
30002428:	e2833001 	add	r3, r3, #1	; 0x1
3000242c:	e50b3014 	str	r3, [fp, #-20]
30002430:	e51b2028 	ldr	r2, [fp, #-40]
30002434:	e51b3020 	ldr	r3, [fp, #-32]
30002438:	e0633002 	rsb	r3, r3, r2
3000243c:	e50b3028 	str	r3, [fp, #-40]
30002440:	e51b3010 	ldr	r3, [fp, #-16]
30002444:	e2433001 	sub	r3, r3, #1	; 0x1
30002448:	e50b3010 	str	r3, [fp, #-16]
3000244c:	e51b2028 	ldr	r2, [fp, #-40]
30002450:	e51b3024 	ldr	r3, [fp, #-36]
30002454:	e0823003 	add	r3, r2, r3
30002458:	e50b3028 	str	r3, [fp, #-40]
3000245c:	eaffffe5 	b	300023f8 <draw_line+0x2ec>
30002460:	e51b2024 	ldr	r2, [fp, #-36]
30002464:	e1a03fc2 	mov	r3, r2, asr #31
30002468:	e1a03fa3 	mov	r3, r3, lsr #31
3000246c:	e0823003 	add	r3, r2, r3
30002470:	e1a020c3 	mov	r2, r3, asr #1
30002474:	e51b3020 	ldr	r3, [fp, #-32]
30002478:	e0623003 	rsb	r3, r2, r3
3000247c:	e50b3028 	str	r3, [fp, #-40]
30002480:	e51b2014 	ldr	r2, [fp, #-20]
30002484:	e51b301c 	ldr	r3, [fp, #-28]
30002488:	e1520003 	cmp	r2, r3
3000248c:	ca000060 	bgt	30002614 <draw_line+0x508>
30002490:	e51b0010 	ldr	r0, [fp, #-16]
30002494:	e51b1014 	ldr	r1, [fp, #-20]
30002498:	e59b2004 	ldr	r2, [fp, #4]
3000249c:	eb0000b1 	bl	30002768 <fb_put_pixel>
300024a0:	e51b3028 	ldr	r3, [fp, #-40]
300024a4:	e3530000 	cmp	r3, #0	; 0x0
300024a8:	da000006 	ble	300024c8 <draw_line+0x3bc>
300024ac:	e51b3010 	ldr	r3, [fp, #-16]
300024b0:	e2433001 	sub	r3, r3, #1	; 0x1
300024b4:	e50b3010 	str	r3, [fp, #-16]
300024b8:	e51b2028 	ldr	r2, [fp, #-40]
300024bc:	e51b3024 	ldr	r3, [fp, #-36]
300024c0:	e0633002 	rsb	r3, r3, r2
300024c4:	e50b3028 	str	r3, [fp, #-40]
300024c8:	e51b3014 	ldr	r3, [fp, #-20]
300024cc:	e2833001 	add	r3, r3, #1	; 0x1
300024d0:	e50b3014 	str	r3, [fp, #-20]
300024d4:	e51b2028 	ldr	r2, [fp, #-40]
300024d8:	e51b3020 	ldr	r3, [fp, #-32]
300024dc:	e0823003 	add	r3, r2, r3
300024e0:	e50b3028 	str	r3, [fp, #-40]
300024e4:	eaffffe5 	b	30002480 <draw_line+0x374>
300024e8:	e51b3024 	ldr	r3, [fp, #-36]
300024ec:	e2633000 	rsb	r3, r3, #0	; 0x0
300024f0:	e50b3024 	str	r3, [fp, #-36]
300024f4:	e51b2020 	ldr	r2, [fp, #-32]
300024f8:	e51b3024 	ldr	r3, [fp, #-36]
300024fc:	e1520003 	cmp	r2, r3
30002500:	ba000021 	blt	3000258c <draw_line+0x480>
30002504:	e51b2020 	ldr	r2, [fp, #-32]
30002508:	e1a03fc2 	mov	r3, r2, asr #31
3000250c:	e1a03fa3 	mov	r3, r3, lsr #31
30002510:	e0823003 	add	r3, r2, r3
30002514:	e1a020c3 	mov	r2, r3, asr #1
30002518:	e51b3024 	ldr	r3, [fp, #-36]
3000251c:	e0623003 	rsb	r3, r2, r3
30002520:	e50b3028 	str	r3, [fp, #-40]
30002524:	e51b2010 	ldr	r2, [fp, #-16]
30002528:	e51b3018 	ldr	r3, [fp, #-24]
3000252c:	e1520003 	cmp	r2, r3
30002530:	ba000037 	blt	30002614 <draw_line+0x508>
30002534:	e51b0010 	ldr	r0, [fp, #-16]
30002538:	e51b1014 	ldr	r1, [fp, #-20]
3000253c:	e59b2004 	ldr	r2, [fp, #4]
30002540:	eb000088 	bl	30002768 <fb_put_pixel>
30002544:	e51b3028 	ldr	r3, [fp, #-40]
30002548:	e3530000 	cmp	r3, #0	; 0x0
3000254c:	da000006 	ble	3000256c <draw_line+0x460>
30002550:	e51b3014 	ldr	r3, [fp, #-20]
30002554:	e2433001 	sub	r3, r3, #1	; 0x1
30002558:	e50b3014 	str	r3, [fp, #-20]
3000255c:	e51b2028 	ldr	r2, [fp, #-40]
30002560:	e51b3020 	ldr	r3, [fp, #-32]
30002564:	e0633002 	rsb	r3, r3, r2
30002568:	e50b3028 	str	r3, [fp, #-40]
3000256c:	e51b3010 	ldr	r3, [fp, #-16]
30002570:	e2433001 	sub	r3, r3, #1	; 0x1
30002574:	e50b3010 	str	r3, [fp, #-16]
30002578:	e51b2028 	ldr	r2, [fp, #-40]
3000257c:	e51b3024 	ldr	r3, [fp, #-36]
30002580:	e0823003 	add	r3, r2, r3
30002584:	e50b3028 	str	r3, [fp, #-40]
30002588:	eaffffe5 	b	30002524 <draw_line+0x418>
3000258c:	e51b2024 	ldr	r2, [fp, #-36]
30002590:	e1a03fc2 	mov	r3, r2, asr #31
30002594:	e1a03fa3 	mov	r3, r3, lsr #31
30002598:	e0823003 	add	r3, r2, r3
3000259c:	e1a020c3 	mov	r2, r3, asr #1
300025a0:	e51b3020 	ldr	r3, [fp, #-32]
300025a4:	e0623003 	rsb	r3, r2, r3
300025a8:	e50b3028 	str	r3, [fp, #-40]
300025ac:	e51b2014 	ldr	r2, [fp, #-20]
300025b0:	e51b301c 	ldr	r3, [fp, #-28]
300025b4:	e1520003 	cmp	r2, r3
300025b8:	ba000015 	blt	30002614 <draw_line+0x508>
300025bc:	e51b0010 	ldr	r0, [fp, #-16]
300025c0:	e51b1014 	ldr	r1, [fp, #-20]
300025c4:	e59b2004 	ldr	r2, [fp, #4]
300025c8:	eb000066 	bl	30002768 <fb_put_pixel>
300025cc:	e51b3028 	ldr	r3, [fp, #-40]
300025d0:	e3530000 	cmp	r3, #0	; 0x0
300025d4:	da000006 	ble	300025f4 <draw_line+0x4e8>
300025d8:	e51b3010 	ldr	r3, [fp, #-16]
300025dc:	e2433001 	sub	r3, r3, #1	; 0x1
300025e0:	e50b3010 	str	r3, [fp, #-16]
300025e4:	e51b2028 	ldr	r2, [fp, #-40]
300025e8:	e51b3024 	ldr	r3, [fp, #-36]
300025ec:	e0633002 	rsb	r3, r3, r2
300025f0:	e50b3028 	str	r3, [fp, #-40]
300025f4:	e51b3014 	ldr	r3, [fp, #-20]
300025f8:	e2433001 	sub	r3, r3, #1	; 0x1
300025fc:	e50b3014 	str	r3, [fp, #-20]
30002600:	e51b2028 	ldr	r2, [fp, #-40]
30002604:	e51b3020 	ldr	r3, [fp, #-32]
30002608:	e0823003 	add	r3, r2, r3
3000260c:	e50b3028 	str	r3, [fp, #-40]
30002610:	eaffffe5 	b	300025ac <draw_line+0x4a0>
30002614:	e24bd00c 	sub	sp, fp, #12	; 0xc
30002618:	e89da800 	ldmia	sp, {fp, sp, pc}

3000261c <fb_disp_cross>:
3000261c:	e1a0c00d 	mov	ip, sp
30002620:	e92dd800 	stmdb	sp!, {fp, ip, lr, pc}
30002624:	e24cb004 	sub	fp, ip, #4	; 0x4
30002628:	e24dd010 	sub	sp, sp, #16	; 0x10
3000262c:	e50b0010 	str	r0, [fp, #-16]
30002630:	e50b1014 	str	r1, [fp, #-20]
30002634:	e50b2018 	str	r2, [fp, #-24]
30002638:	e51b3010 	ldr	r3, [fp, #-16]
3000263c:	e243200a 	sub	r2, r3, #10	; 0xa
30002640:	e51b3010 	ldr	r3, [fp, #-16]
30002644:	e283c00a 	add	ip, r3, #10	; 0xa
30002648:	e51b3018 	ldr	r3, [fp, #-24]
3000264c:	e58d3000 	str	r3, [sp]
30002650:	e1a00002 	mov	r0, r2
30002654:	e51b1014 	ldr	r1, [fp, #-20]
30002658:	e1a0200c 	mov	r2, ip
3000265c:	e51b3014 	ldr	r3, [fp, #-20]
30002660:	ebfffea9 	bl	3000210c <draw_line>
30002664:	e51b3014 	ldr	r3, [fp, #-20]
30002668:	e243200a 	sub	r2, r3, #10	; 0xa
3000266c:	e51b3014 	ldr	r3, [fp, #-20]
30002670:	e283c00a 	add	ip, r3, #10	; 0xa
30002674:	e51b3018 	ldr	r3, [fp, #-24]
30002678:	e58d3000 	str	r3, [sp]
3000267c:	e51b0010 	ldr	r0, [fp, #-16]
30002680:	e1a01002 	mov	r1, r2
30002684:	e51b2010 	ldr	r2, [fp, #-16]
30002688:	e1a0300c 	mov	r3, ip
3000268c:	ebfffe9e 	bl	3000210c <draw_line>
30002690:	e24bd00c 	sub	sp, fp, #12	; 0xc
30002694:	e89da800 	ldmia	sp, {fp, sp, pc}

30002698 <fb_get_lcd_params>:
30002698:	e1a0c00d 	mov	ip, sp
3000269c:	e92dd800 	stmdb	sp!, {fp, ip, lr, pc}
300026a0:	e24cb004 	sub	fp, ip, #4	; 0x4
300026a4:	e59f0010 	ldr	r0, [pc, #16]	; 300026bc <.text+0x26bc>
300026a8:	e59f1010 	ldr	r1, [pc, #16]	; 300026c0 <.text+0x26c0>
300026ac:	e59f2010 	ldr	r2, [pc, #16]	; 300026c4 <.text+0x26c4>
300026b0:	e59f3010 	ldr	r3, [pc, #16]	; 300026c8 <.text+0x26c8>
300026b4:	eb000564 	bl	30003c4c <get_lcd_params>
300026b8:	e89da800 	ldmia	sp, {fp, sp, pc}
300026bc:	30007894 	mulcc	r0, r4, r8
300026c0:	30007898 	mulcc	r0, r8, r8
300026c4:	3000789c 	mulcc	r0, ip, r8
300026c8:	300078a0 	andcc	r7, r0, r0, lsr #17

300026cc <convert32bppto16bpp>:
300026cc:	e1a0c00d 	mov	ip, sp
300026d0:	e92dd800 	stmdb	sp!, {fp, ip, lr, pc}
300026d4:	e24cb004 	sub	fp, ip, #4	; 0x4
300026d8:	e24dd010 	sub	sp, sp, #16	; 0x10
300026dc:	e50b0010 	str	r0, [fp, #-16]
300026e0:	e51b3010 	ldr	r3, [fp, #-16]
300026e4:	e1a03823 	mov	r3, r3, lsr #16
300026e8:	e20330ff 	and	r3, r3, #255	; 0xff
300026ec:	e50b3014 	str	r3, [fp, #-20]
300026f0:	e51b3010 	ldr	r3, [fp, #-16]
300026f4:	e1a03423 	mov	r3, r3, lsr #8
300026f8:	e20330ff 	and	r3, r3, #255	; 0xff
300026fc:	e50b3018 	str	r3, [fp, #-24]
30002700:	e51b3010 	ldr	r3, [fp, #-16]
30002704:	e20330ff 	and	r3, r3, #255	; 0xff
30002708:	e50b301c 	str	r3, [fp, #-28]
3000270c:	e51b3014 	ldr	r3, [fp, #-20]
30002710:	e1a031c3 	mov	r3, r3, asr #3
30002714:	e50b3014 	str	r3, [fp, #-20]
30002718:	e51b3018 	ldr	r3, [fp, #-24]
3000271c:	e1a03143 	mov	r3, r3, asr #2
30002720:	e50b3018 	str	r3, [fp, #-24]
30002724:	e51b301c 	ldr	r3, [fp, #-28]
30002728:	e1a031c3 	mov	r3, r3, asr #3
3000272c:	e50b301c 	str	r3, [fp, #-28]
30002730:	e51b3014 	ldr	r3, [fp, #-20]
30002734:	e1a02583 	mov	r2, r3, lsl #11
30002738:	e51b3018 	ldr	r3, [fp, #-24]
3000273c:	e1a03283 	mov	r3, r3, lsl #5
30002740:	e1823003 	orr	r3, r2, r3
30002744:	e51b201c 	ldr	r2, [fp, #-28]
30002748:	e1a01003 	mov	r1, r3
3000274c:	e1a03002 	mov	r3, r2
30002750:	e1813003 	orr	r3, r1, r3
30002754:	e1a03803 	mov	r3, r3, lsl #16
30002758:	e1a03823 	mov	r3, r3, lsr #16
3000275c:	e1a00003 	mov	r0, r3
30002760:	e24bd00c 	sub	sp, fp, #12	; 0xc
30002764:	e89da800 	ldmia	sp, {fp, sp, pc}

30002768 <fb_put_pixel>:
30002768:	e1a0c00d 	mov	ip, sp
3000276c:	e92dd800 	stmdb	sp!, {fp, ip, lr, pc}
30002770:	e24cb004 	sub	fp, ip, #4	; 0x4
30002774:	e24dd020 	sub	sp, sp, #32	; 0x20
30002778:	e50b0010 	str	r0, [fp, #-16]
3000277c:	e50b1014 	str	r1, [fp, #-20]
30002780:	e50b2018 	str	r2, [fp, #-24]
30002784:	e59f30f0 	ldr	r3, [pc, #240]	; 3000287c <.text+0x287c>
30002788:	e59f20f0 	ldr	r2, [pc, #240]	; 30002880 <.text+0x2880>
3000278c:	e5931000 	ldr	r1, [r3]
30002790:	e5923000 	ldr	r3, [r2]
30002794:	e0020193 	mul	r2, r3, r1
30002798:	e1a03fc2 	mov	r3, r2, asr #31
3000279c:	e1a03ea3 	mov	r3, r3, lsr #29
300027a0:	e0823003 	add	r3, r2, r3
300027a4:	e1a021c3 	mov	r2, r3, asr #3
300027a8:	e51b3014 	ldr	r3, [fp, #-20]
300027ac:	e0020293 	mul	r2, r3, r2
300027b0:	e59f30cc 	ldr	r3, [pc, #204]	; 30002884 <.text+0x2884>
300027b4:	e5933000 	ldr	r3, [r3]
300027b8:	e0821003 	add	r1, r2, r3
300027bc:	e59f30bc 	ldr	r3, [pc, #188]	; 30002880 <.text+0x2880>
300027c0:	e51b2010 	ldr	r2, [fp, #-16]
300027c4:	e5933000 	ldr	r3, [r3]
300027c8:	e0020293 	mul	r2, r3, r2
300027cc:	e1a03fc2 	mov	r3, r2, asr #31
300027d0:	e1a03ea3 	mov	r3, r3, lsr #29
300027d4:	e0823003 	add	r3, r2, r3
300027d8:	e1a031c3 	mov	r3, r3, asr #3
300027dc:	e0813003 	add	r3, r1, r3
300027e0:	e50b3028 	str	r3, [fp, #-40]
300027e4:	e59f3094 	ldr	r3, [pc, #148]	; 30002880 <.text+0x2880>
300027e8:	e5933000 	ldr	r3, [r3]
300027ec:	e50b302c 	str	r3, [fp, #-44]
300027f0:	e51b302c 	ldr	r3, [fp, #-44]
300027f4:	e3530010 	cmp	r3, #16	; 0x10
300027f8:	0a000010 	beq	30002840 <fb_put_pixel+0xd8>
300027fc:	e51b302c 	ldr	r3, [fp, #-44]
30002800:	e3530010 	cmp	r3, #16	; 0x10
30002804:	ca000003 	bgt	30002818 <fb_put_pixel+0xb0>
30002808:	e51b302c 	ldr	r3, [fp, #-44]
3000280c:	e3530008 	cmp	r3, #8	; 0x8
30002810:	0a000004 	beq	30002828 <fb_put_pixel+0xc0>
30002814:	ea000016 	b	30002874 <fb_put_pixel+0x10c>
30002818:	e51b302c 	ldr	r3, [fp, #-44]
3000281c:	e3530020 	cmp	r3, #32	; 0x20
30002820:	0a00000e 	beq	30002860 <fb_put_pixel+0xf8>
30002824:	ea000012 	b	30002874 <fb_put_pixel+0x10c>
30002828:	e51b3028 	ldr	r3, [fp, #-40]
3000282c:	e50b301c 	str	r3, [fp, #-28]
30002830:	e51b201c 	ldr	r2, [fp, #-28]
30002834:	e51b3018 	ldr	r3, [fp, #-24]
30002838:	e5c23000 	strb	r3, [r2]
3000283c:	ea00000c 	b	30002874 <fb_put_pixel+0x10c>
30002840:	e51b3028 	ldr	r3, [fp, #-40]
30002844:	e50b3020 	str	r3, [fp, #-32]
30002848:	e51b0018 	ldr	r0, [fp, #-24]
3000284c:	ebffff9e 	bl	300026cc <convert32bppto16bpp>
30002850:	e1a02000 	mov	r2, r0
30002854:	e51b3020 	ldr	r3, [fp, #-32]
30002858:	e1c320b0 	strh	r2, [r3]
3000285c:	ea000004 	b	30002874 <fb_put_pixel+0x10c>
30002860:	e51b3028 	ldr	r3, [fp, #-40]
30002864:	e50b3024 	str	r3, [fp, #-36]
30002868:	e51b2024 	ldr	r2, [fp, #-36]
3000286c:	e51b3018 	ldr	r3, [fp, #-24]
30002870:	e5823000 	str	r3, [r2]
30002874:	e24bd00c 	sub	sp, fp, #12	; 0xc
30002878:	e89da800 	ldmia	sp, {fp, sp, pc}
3000287c:	30007898 	mulcc	r0, r8, r8
30002880:	300078a0 	andcc	r7, r0, r0, lsr #17
30002884:	30007894 	mulcc	r0, r4, r8

30002888 <jz2440_lcd_pin_init>:
30002888:	e1a0c00d 	mov	ip, sp
3000288c:	e92dd800 	stmdb	sp!, {fp, ip, lr, pc}
30002890:	e24cb004 	sub	fp, ip, #4	; 0x4
30002894:	e3a02456 	mov	r2, #1442840576	; 0x56000000
30002898:	e2822010 	add	r2, r2, #16	; 0x10
3000289c:	e3a03456 	mov	r3, #1442840576	; 0x56000000
300028a0:	e2833010 	add	r3, r3, #16	; 0x10
300028a4:	e5933000 	ldr	r3, [r3]
300028a8:	e3c33003 	bic	r3, r3, #3	; 0x3
300028ac:	e5823000 	str	r3, [r2]
300028b0:	e3a02456 	mov	r2, #1442840576	; 0x56000000
300028b4:	e2822010 	add	r2, r2, #16	; 0x10
300028b8:	e3a03456 	mov	r3, #1442840576	; 0x56000000
300028bc:	e2833010 	add	r3, r3, #16	; 0x10
300028c0:	e5933000 	ldr	r3, [r3]
300028c4:	e3833001 	orr	r3, r3, #1	; 0x1
300028c8:	e5823000 	str	r3, [r2]
300028cc:	e3a02456 	mov	r2, #1442840576	; 0x56000000
300028d0:	e2822020 	add	r2, r2, #32	; 0x20
300028d4:	e3a03caa 	mov	r3, #43520	; 0xaa00
300028d8:	e28330aa 	add	r3, r3, #170	; 0xaa
300028dc:	e1833803 	orr	r3, r3, r3, lsl #16
300028e0:	e5823000 	str	r3, [r2]
300028e4:	e3a02456 	mov	r2, #1442840576	; 0x56000000
300028e8:	e2822030 	add	r2, r2, #48	; 0x30
300028ec:	e3a03caa 	mov	r3, #43520	; 0xaa00
300028f0:	e28330aa 	add	r3, r3, #170	; 0xaa
300028f4:	e1833803 	orr	r3, r3, r3, lsl #16
300028f8:	e5823000 	str	r3, [r2]
300028fc:	e3a02456 	mov	r2, #1442840576	; 0x56000000
30002900:	e2822060 	add	r2, r2, #96	; 0x60
30002904:	e3a03456 	mov	r3, #1442840576	; 0x56000000
30002908:	e2833060 	add	r3, r3, #96	; 0x60
3000290c:	e5933000 	ldr	r3, [r3]
30002910:	e3833c03 	orr	r3, r3, #768	; 0x300
30002914:	e5823000 	str	r3, [r2]
30002918:	e89da800 	ldmia	sp, {fp, sp, pc}

3000291c <s3c2440_lcd_controller_init>:
3000291c:	e1a0c00d 	mov	ip, sp
30002920:	e92dd800 	stmdb	sp!, {fp, ip, lr, pc}
30002924:	e24cb004 	sub	fp, ip, #4	; 0x4
30002928:	e24dd01c 	sub	sp, sp, #28	; 0x1c
3000292c:	e50b0010 	str	r0, [fp, #-16]
30002930:	ebffffd4 	bl	30002888 <jz2440_lcd_pin_init>
30002934:	e3a03005 	mov	r3, #5	; 0x5
30002938:	e50b301c 	str	r3, [fp, #-28]
3000293c:	e51b3010 	ldr	r3, [fp, #-16]
30002940:	e5933040 	ldr	r3, [r3, #64]
30002944:	e3530008 	cmp	r3, #8	; 0x8
30002948:	0a000009 	beq	30002974 <s3c2440_lcd_controller_init+0x58>
3000294c:	e51b3010 	ldr	r3, [fp, #-16]
30002950:	e5933040 	ldr	r3, [r3, #64]
30002954:	e3530010 	cmp	r3, #16	; 0x10
30002958:	1a000002 	bne	30002968 <s3c2440_lcd_controller_init+0x4c>
3000295c:	e3a0300c 	mov	r3, #12	; 0xc
30002960:	e50b3024 	str	r3, [fp, #-36]
30002964:	ea000004 	b	3000297c <s3c2440_lcd_controller_init+0x60>
30002968:	e3a0300d 	mov	r3, #13	; 0xd
3000296c:	e50b3024 	str	r3, [fp, #-36]
30002970:	ea000001 	b	3000297c <s3c2440_lcd_controller_init+0x60>
30002974:	e3a0300b 	mov	r3, #11	; 0xb
30002978:	e50b3024 	str	r3, [fp, #-36]
3000297c:	e51b3024 	ldr	r3, [fp, #-36]
30002980:	e50b3020 	str	r3, [fp, #-32]
30002984:	e3a0144d 	mov	r1, #1291845632	; 0x4d000000
30002988:	e51b301c 	ldr	r3, [fp, #-28]
3000298c:	e1a02403 	mov	r2, r3, lsl #8
30002990:	e51b3020 	ldr	r3, [fp, #-32]
30002994:	e1a03083 	mov	r3, r3, lsl #1
30002998:	e1823003 	orr	r3, r2, r3
3000299c:	e3833060 	orr	r3, r3, #96	; 0x60
300029a0:	e5813000 	str	r3, [r1]
300029a4:	e3a0244d 	mov	r2, #1291845632	; 0x4d000000
300029a8:	e2822004 	add	r2, r2, #4	; 0x4
300029ac:	e51b3010 	ldr	r3, [fp, #-16]
300029b0:	e5933020 	ldr	r3, [r3, #32]
300029b4:	e2433001 	sub	r3, r3, #1	; 0x1
300029b8:	e1a01c03 	mov	r1, r3, lsl #24
300029bc:	e51b3010 	ldr	r3, [fp, #-16]
300029c0:	e593303c 	ldr	r3, [r3, #60]
300029c4:	e2433001 	sub	r3, r3, #1	; 0x1
300029c8:	e1a03703 	mov	r3, r3, lsl #14
300029cc:	e1811003 	orr	r1, r1, r3
300029d0:	e51b3010 	ldr	r3, [fp, #-16]
300029d4:	e5933024 	ldr	r3, [r3, #36]
300029d8:	e2433001 	sub	r3, r3, #1	; 0x1
300029dc:	e1a03303 	mov	r3, r3, lsl #6
300029e0:	e1811003 	orr	r1, r1, r3
300029e4:	e51b3010 	ldr	r3, [fp, #-16]
300029e8:	e593301c 	ldr	r3, [r3, #28]
300029ec:	e2433001 	sub	r3, r3, #1	; 0x1
300029f0:	e1813003 	orr	r3, r1, r3
300029f4:	e5823000 	str	r3, [r2]
300029f8:	e3a0244d 	mov	r2, #1291845632	; 0x4d000000
300029fc:	e2822008 	add	r2, r2, #8	; 0x8
30002a00:	e51b3010 	ldr	r3, [fp, #-16]
30002a04:	e593302c 	ldr	r3, [r3, #44]
30002a08:	e2433001 	sub	r3, r3, #1	; 0x1
30002a0c:	e1a01983 	mov	r1, r3, lsl #19
30002a10:	e51b3010 	ldr	r3, [fp, #-16]
30002a14:	e5933038 	ldr	r3, [r3, #56]
30002a18:	e2433001 	sub	r3, r3, #1	; 0x1
30002a1c:	e1a03403 	mov	r3, r3, lsl #8
30002a20:	e1811003 	orr	r1, r1, r3
30002a24:	e51b3010 	ldr	r3, [fp, #-16]
30002a28:	e5933030 	ldr	r3, [r3, #48]
30002a2c:	e2433001 	sub	r3, r3, #1	; 0x1
30002a30:	e1813003 	orr	r3, r1, r3
30002a34:	e5823000 	str	r3, [r2]
30002a38:	e3a0244d 	mov	r2, #1291845632	; 0x4d000000
30002a3c:	e282200c 	add	r2, r2, #12	; 0xc
30002a40:	e51b3010 	ldr	r3, [fp, #-16]
30002a44:	e5933028 	ldr	r3, [r3, #40]
30002a48:	e2433001 	sub	r3, r3, #1	; 0x1
30002a4c:	e5823000 	str	r3, [r2]
30002a50:	e51b3010 	ldr	r3, [fp, #-16]
30002a54:	e5933040 	ldr	r3, [r3, #64]
30002a58:	e3530020 	cmp	r3, #32	; 0x20
30002a5c:	0a000009 	beq	30002a88 <s3c2440_lcd_controller_init+0x16c>
30002a60:	e51b3010 	ldr	r3, [fp, #-16]
30002a64:	e5933040 	ldr	r3, [r3, #64]
30002a68:	e3530010 	cmp	r3, #16	; 0x10
30002a6c:	1a000002 	bne	30002a7c <s3c2440_lcd_controller_init+0x160>
30002a70:	e3a03001 	mov	r3, #1	; 0x1
30002a74:	e50b3028 	str	r3, [fp, #-40]
30002a78:	ea000004 	b	30002a90 <s3c2440_lcd_controller_init+0x174>
30002a7c:	e3a03002 	mov	r3, #2	; 0x2
30002a80:	e50b3028 	str	r3, [fp, #-40]
30002a84:	ea000001 	b	30002a90 <s3c2440_lcd_controller_init+0x174>
30002a88:	e3a03000 	mov	r3, #0	; 0x0
30002a8c:	e50b3028 	str	r3, [fp, #-40]
30002a90:	e51b3028 	ldr	r3, [fp, #-40]
30002a94:	e50b3014 	str	r3, [fp, #-20]
30002a98:	e3a0144d 	mov	r1, #1291845632	; 0x4d000000
30002a9c:	e2811010 	add	r1, r1, #16	; 0x10
30002aa0:	e51b3010 	ldr	r3, [fp, #-16]
30002aa4:	e593300c 	ldr	r3, [r3, #12]
30002aa8:	e1a02503 	mov	r2, r3, lsl #10
30002aac:	e51b3010 	ldr	r3, [fp, #-16]
30002ab0:	e5933010 	ldr	r3, [r3, #16]
30002ab4:	e1a03383 	mov	r3, r3, lsl #7
30002ab8:	e1822003 	orr	r2, r2, r3
30002abc:	e51b3010 	ldr	r3, [fp, #-16]
30002ac0:	e5933014 	ldr	r3, [r3, #20]
30002ac4:	e1a03483 	mov	r3, r3, lsl #9
30002ac8:	e1822003 	orr	r2, r2, r3
30002acc:	e51b3010 	ldr	r3, [fp, #-16]
30002ad0:	e5933018 	ldr	r3, [r3, #24]
30002ad4:	e1a03403 	mov	r3, r3, lsl #8
30002ad8:	e1822003 	orr	r2, r2, r3
30002adc:	e51b3010 	ldr	r3, [fp, #-16]
30002ae0:	e5933004 	ldr	r3, [r3, #4]
30002ae4:	e1a03303 	mov	r3, r3, lsl #6
30002ae8:	e1822003 	orr	r2, r2, r3
30002aec:	e51b3010 	ldr	r3, [fp, #-16]
30002af0:	e5933008 	ldr	r3, [r3, #8]
30002af4:	e1a03283 	mov	r3, r3, lsl #5
30002af8:	e1822003 	orr	r2, r2, r3
30002afc:	e51b3014 	ldr	r3, [fp, #-20]
30002b00:	e1823003 	orr	r3, r2, r3
30002b04:	e3833b02 	orr	r3, r3, #2048	; 0x800
30002b08:	e5813000 	str	r3, [r1]
30002b0c:	e51b3010 	ldr	r3, [fp, #-16]
30002b10:	e5933044 	ldr	r3, [r3, #68]
30002b14:	e3c33102 	bic	r3, r3, #-2147483648	; 0x80000000
30002b18:	e50b3018 	str	r3, [fp, #-24]
30002b1c:	e3a0344d 	mov	r3, #1291845632	; 0x4d000000
30002b20:	e2833014 	add	r3, r3, #20	; 0x14
30002b24:	e51b2018 	ldr	r2, [fp, #-24]
30002b28:	e1a020a2 	mov	r2, r2, lsr #1
30002b2c:	e5832000 	str	r2, [r3]
30002b30:	e51b0010 	ldr	r0, [fp, #-16]
30002b34:	e51b3010 	ldr	r3, [fp, #-16]
30002b38:	e51b2010 	ldr	r2, [fp, #-16]
30002b3c:	e5931038 	ldr	r1, [r3, #56]
30002b40:	e592303c 	ldr	r3, [r2, #60]
30002b44:	e0020193 	mul	r2, r3, r1
30002b48:	e51b3010 	ldr	r3, [fp, #-16]
30002b4c:	e5933040 	ldr	r3, [r3, #64]
30002b50:	e0020293 	mul	r2, r3, r2
30002b54:	e1a03fc2 	mov	r3, r2, asr #31
30002b58:	e1a03ea3 	mov	r3, r3, lsr #29
30002b5c:	e0823003 	add	r3, r2, r3
30002b60:	e1a021c3 	mov	r2, r3, asr #3
30002b64:	e5903044 	ldr	r3, [r0, #68]
30002b68:	e0833002 	add	r3, r3, r2
30002b6c:	e50b3018 	str	r3, [fp, #-24]
30002b70:	e51b3018 	ldr	r3, [fp, #-24]
30002b74:	e1a030a3 	mov	r3, r3, lsr #1
30002b78:	e50b3018 	str	r3, [fp, #-24]
30002b7c:	e51b3018 	ldr	r3, [fp, #-24]
30002b80:	e3c334ff 	bic	r3, r3, #-16777216	; 0xff000000
30002b84:	e3c3360e 	bic	r3, r3, #14680064	; 0xe00000
30002b88:	e50b3018 	str	r3, [fp, #-24]
30002b8c:	e3a0344d 	mov	r3, #1291845632	; 0x4d000000
30002b90:	e2833018 	add	r3, r3, #24	; 0x18
30002b94:	e51b2018 	ldr	r2, [fp, #-24]
30002b98:	e5832000 	str	r2, [r3]
30002b9c:	e24bd00c 	sub	sp, fp, #12	; 0xc
30002ba0:	e89da800 	ldmia	sp, {fp, sp, pc}

30002ba4 <s3c2440_lcd_controller_enalbe>:
30002ba4:	e1a0c00d 	mov	ip, sp
30002ba8:	e92dd800 	stmdb	sp!, {fp, ip, lr, pc}
30002bac:	e24cb004 	sub	fp, ip, #4	; 0x4
30002bb0:	e3a02456 	mov	r2, #1442840576	; 0x56000000
30002bb4:	e2822014 	add	r2, r2, #20	; 0x14
30002bb8:	e3a03456 	mov	r3, #1442840576	; 0x56000000
30002bbc:	e2833014 	add	r3, r3, #20	; 0x14
30002bc0:	e5933000 	ldr	r3, [r3]
30002bc4:	e3833001 	orr	r3, r3, #1	; 0x1
30002bc8:	e5823000 	str	r3, [r2]
30002bcc:	e3a0244d 	mov	r2, #1291845632	; 0x4d000000
30002bd0:	e2822010 	add	r2, r2, #16	; 0x10
30002bd4:	e3a0344d 	mov	r3, #1291845632	; 0x4d000000
30002bd8:	e2833010 	add	r3, r3, #16	; 0x10
30002bdc:	e5933000 	ldr	r3, [r3]
30002be0:	e3833008 	orr	r3, r3, #8	; 0x8
30002be4:	e5823000 	str	r3, [r2]
30002be8:	e3a0244d 	mov	r2, #1291845632	; 0x4d000000
30002bec:	e3a0344d 	mov	r3, #1291845632	; 0x4d000000
30002bf0:	e5933000 	ldr	r3, [r3]
30002bf4:	e3833001 	orr	r3, r3, #1	; 0x1
30002bf8:	e5823000 	str	r3, [r2]
30002bfc:	e89da800 	ldmia	sp, {fp, sp, pc}

30002c00 <s3c2440_lcd_controller_disable>:
30002c00:	e1a0c00d 	mov	ip, sp
30002c04:	e92dd800 	stmdb	sp!, {fp, ip, lr, pc}
30002c08:	e24cb004 	sub	fp, ip, #4	; 0x4
30002c0c:	e3a02456 	mov	r2, #1442840576	; 0x56000000
30002c10:	e2822014 	add	r2, r2, #20	; 0x14
30002c14:	e3a03456 	mov	r3, #1442840576	; 0x56000000
30002c18:	e2833014 	add	r3, r3, #20	; 0x14
30002c1c:	e5933000 	ldr	r3, [r3]
30002c20:	e3c33001 	bic	r3, r3, #1	; 0x1
30002c24:	e5823000 	str	r3, [r2]
30002c28:	e3a0244d 	mov	r2, #1291845632	; 0x4d000000
30002c2c:	e2822010 	add	r2, r2, #16	; 0x10
30002c30:	e3a0344d 	mov	r3, #1291845632	; 0x4d000000
30002c34:	e2833010 	add	r3, r3, #16	; 0x10
30002c38:	e5933000 	ldr	r3, [r3]
30002c3c:	e3c33008 	bic	r3, r3, #8	; 0x8
30002c40:	e5823000 	str	r3, [r2]
30002c44:	e3a0244d 	mov	r2, #1291845632	; 0x4d000000
30002c48:	e3a0344d 	mov	r3, #1291845632	; 0x4d000000
30002c4c:	e5933000 	ldr	r3, [r3]
30002c50:	e3c33001 	bic	r3, r3, #1	; 0x1
30002c54:	e5823000 	str	r3, [r2]
30002c58:	e89da800 	ldmia	sp, {fp, sp, pc}

30002c5c <s3c2440_lcd_contoller_add>:
30002c5c:	e1a0c00d 	mov	ip, sp
30002c60:	e92dd800 	stmdb	sp!, {fp, ip, lr, pc}
30002c64:	e24cb004 	sub	fp, ip, #4	; 0x4
30002c68:	e59f0004 	ldr	r0, [pc, #4]	; 30002c74 <.text+0x2c74>
30002c6c:	eb0001ec 	bl	30003424 <register_lcd_controller>
30002c70:	e89da800 	ldmia	sp, {fp, sp, pc}
30002c74:	3000783c 	andcc	r7, r0, ip, lsr r8

30002c78 <font_init>:
30002c78:	e1a0c00d 	mov	ip, sp
30002c7c:	e92dd800 	stmdb	sp!, {fp, ip, lr, pc}
30002c80:	e24cb004 	sub	fp, ip, #4	; 0x4
30002c84:	e59f0010 	ldr	r0, [pc, #16]	; 30002c9c <.text+0x2c9c>
30002c88:	e59f1010 	ldr	r1, [pc, #16]	; 30002ca0 <.text+0x2ca0>
30002c8c:	e59f2010 	ldr	r2, [pc, #16]	; 30002ca4 <.text+0x2ca4>
30002c90:	e59f3010 	ldr	r3, [pc, #16]	; 30002ca8 <.text+0x2ca8>
30002c94:	eb0003ec 	bl	30003c4c <get_lcd_params>
30002c98:	e89da800 	ldmia	sp, {fp, sp, pc}
30002c9c:	300078a4 	andcc	r7, r0, r4, lsr #17
30002ca0:	300078a8 	andcc	r7, r0, r8, lsr #17
30002ca4:	300078ac 	andcc	r7, r0, ip, lsr #17
30002ca8:	300078b0 	strcch	r7, [r0], -r0

30002cac <fb_print_char>:
30002cac:	e1a0c00d 	mov	ip, sp
30002cb0:	e92dd800 	stmdb	sp!, {fp, ip, lr, pc}
30002cb4:	e24cb004 	sub	fp, ip, #4	; 0x4
30002cb8:	e24dd024 	sub	sp, sp, #36	; 0x24
30002cbc:	e50b0010 	str	r0, [fp, #-16]
30002cc0:	e50b1014 	str	r1, [fp, #-20]
30002cc4:	e50b301c 	str	r3, [fp, #-28]
30002cc8:	e1a03002 	mov	r3, r2
30002ccc:	e54b3015 	strb	r3, [fp, #-21]
30002cd0:	e55b3015 	ldrb	r3, [fp, #-21]
30002cd4:	e1a02203 	mov	r2, r3, lsl #4
30002cd8:	e59f30b8 	ldr	r3, [pc, #184]	; 30002d98 <.text+0x2d98>
30002cdc:	e0823003 	add	r3, r2, r3
30002ce0:	e50b3028 	str	r3, [fp, #-40]
30002ce4:	e51b3014 	ldr	r3, [fp, #-20]
30002ce8:	e50b3024 	str	r3, [fp, #-36]
30002cec:	e51b3014 	ldr	r3, [fp, #-20]
30002cf0:	e2832010 	add	r2, r3, #16	; 0x10
30002cf4:	e51b3024 	ldr	r3, [fp, #-36]
30002cf8:	e1520003 	cmp	r2, r3
30002cfc:	da000023 	ble	30002d90 <fb_print_char+0xe4>
30002d00:	e24b2028 	sub	r2, fp, #40	; 0x28
30002d04:	e5923000 	ldr	r3, [r2]
30002d08:	e5d31000 	ldrb	r1, [r3]
30002d0c:	e2833001 	add	r3, r3, #1	; 0x1
30002d10:	e5823000 	str	r3, [r2]
30002d14:	e54b1029 	strb	r1, [fp, #-41]
30002d18:	e3a03007 	mov	r3, #7	; 0x7
30002d1c:	e50b3030 	str	r3, [fp, #-48]
30002d20:	e51b3010 	ldr	r3, [fp, #-16]
30002d24:	e50b3020 	str	r3, [fp, #-32]
30002d28:	e51b3010 	ldr	r3, [fp, #-16]
30002d2c:	e2832008 	add	r2, r3, #8	; 0x8
30002d30:	e51b3020 	ldr	r3, [fp, #-32]
30002d34:	e1520003 	cmp	r2, r3
30002d38:	da000010 	ble	30002d80 <fb_print_char+0xd4>
30002d3c:	e55b2029 	ldrb	r2, [fp, #-41]
30002d40:	e51b3030 	ldr	r3, [fp, #-48]
30002d44:	e1a03352 	mov	r3, r2, asr r3
30002d48:	e2033001 	and	r3, r3, #1	; 0x1
30002d4c:	e3530000 	cmp	r3, #0	; 0x0
30002d50:	0a000003 	beq	30002d64 <fb_print_char+0xb8>
30002d54:	e51b0020 	ldr	r0, [fp, #-32]
30002d58:	e51b1024 	ldr	r1, [fp, #-36]
30002d5c:	e51b201c 	ldr	r2, [fp, #-28]
30002d60:	ebfffe80 	bl	30002768 <fb_put_pixel>
30002d64:	e51b3030 	ldr	r3, [fp, #-48]
30002d68:	e2433001 	sub	r3, r3, #1	; 0x1
30002d6c:	e50b3030 	str	r3, [fp, #-48]
30002d70:	e51b3020 	ldr	r3, [fp, #-32]
30002d74:	e2833001 	add	r3, r3, #1	; 0x1
30002d78:	e50b3020 	str	r3, [fp, #-32]
30002d7c:	eaffffe9 	b	30002d28 <fb_print_char+0x7c>
30002d80:	e51b3024 	ldr	r3, [fp, #-36]
30002d84:	e2833001 	add	r3, r3, #1	; 0x1
30002d88:	e50b3024 	str	r3, [fp, #-36]
30002d8c:	eaffffd6 	b	30002cec <fb_print_char+0x40>
30002d90:	e24bd00c 	sub	sp, fp, #12	; 0xc
30002d94:	e89da800 	ldmia	sp, {fp, sp, pc}
30002d98:	30006458 	andcc	r6, r0, r8, asr r4

30002d9c <fb_print_string>:
30002d9c:	e1a0c00d 	mov	ip, sp
30002da0:	e92dd800 	stmdb	sp!, {fp, ip, lr, pc}
30002da4:	e24cb004 	sub	fp, ip, #4	; 0x4
30002da8:	e24dd018 	sub	sp, sp, #24	; 0x18
30002dac:	e50b0010 	str	r0, [fp, #-16]
30002db0:	e50b1014 	str	r1, [fp, #-20]
30002db4:	e50b2018 	str	r2, [fp, #-24]
30002db8:	e50b301c 	str	r3, [fp, #-28]
30002dbc:	e3a03000 	mov	r3, #0	; 0x0
30002dc0:	e50b3020 	str	r3, [fp, #-32]
30002dc4:	e51b2018 	ldr	r2, [fp, #-24]
30002dc8:	e51b3020 	ldr	r3, [fp, #-32]
30002dcc:	e0823003 	add	r3, r2, r3
30002dd0:	e5d33000 	ldrb	r3, [r3]
30002dd4:	e3530000 	cmp	r3, #0	; 0x0
30002dd8:	0a00002c 	beq	30002e90 <fb_print_string+0xf4>
30002ddc:	e51b2018 	ldr	r2, [fp, #-24]
30002de0:	e51b3020 	ldr	r3, [fp, #-32]
30002de4:	e0823003 	add	r3, r2, r3
30002de8:	e5d33000 	ldrb	r3, [r3]
30002dec:	e353000a 	cmp	r3, #10	; 0xa
30002df0:	1a000003 	bne	30002e04 <fb_print_string+0x68>
30002df4:	e51b3014 	ldr	r3, [fp, #-20]
30002df8:	e2833010 	add	r3, r3, #16	; 0x10
30002dfc:	e50b3014 	str	r3, [fp, #-20]
30002e00:	ea00001e 	b	30002e80 <fb_print_string+0xe4>
30002e04:	e51b2018 	ldr	r2, [fp, #-24]
30002e08:	e51b3020 	ldr	r3, [fp, #-32]
30002e0c:	e0823003 	add	r3, r2, r3
30002e10:	e5d33000 	ldrb	r3, [r3]
30002e14:	e353000d 	cmp	r3, #13	; 0xd
30002e18:	1a000002 	bne	30002e28 <fb_print_string+0x8c>
30002e1c:	e3a03000 	mov	r3, #0	; 0x0
30002e20:	e50b3010 	str	r3, [fp, #-16]
30002e24:	ea000015 	b	30002e80 <fb_print_string+0xe4>
30002e28:	e51b2018 	ldr	r2, [fp, #-24]
30002e2c:	e51b3020 	ldr	r3, [fp, #-32]
30002e30:	e0823003 	add	r3, r2, r3
30002e34:	e5d33000 	ldrb	r3, [r3]
30002e38:	e51b0010 	ldr	r0, [fp, #-16]
30002e3c:	e51b1014 	ldr	r1, [fp, #-20]
30002e40:	e1a02003 	mov	r2, r3
30002e44:	e51b301c 	ldr	r3, [fp, #-28]
30002e48:	ebffff97 	bl	30002cac <fb_print_char>
30002e4c:	e51b3010 	ldr	r3, [fp, #-16]
30002e50:	e2833008 	add	r3, r3, #8	; 0x8
30002e54:	e50b3010 	str	r3, [fp, #-16]
30002e58:	e59f3038 	ldr	r3, [pc, #56]	; 30002e98 <.text+0x2e98>
30002e5c:	e51b2010 	ldr	r2, [fp, #-16]
30002e60:	e5933000 	ldr	r3, [r3]
30002e64:	e1520003 	cmp	r2, r3
30002e68:	ba000004 	blt	30002e80 <fb_print_string+0xe4>
30002e6c:	e3a03000 	mov	r3, #0	; 0x0
30002e70:	e50b3010 	str	r3, [fp, #-16]
30002e74:	e51b3014 	ldr	r3, [fp, #-20]
30002e78:	e2833010 	add	r3, r3, #16	; 0x10
30002e7c:	e50b3014 	str	r3, [fp, #-20]
30002e80:	e51b3020 	ldr	r3, [fp, #-32]
30002e84:	e2833001 	add	r3, r3, #1	; 0x1
30002e88:	e50b3020 	str	r3, [fp, #-32]
30002e8c:	eaffffcc 	b	30002dc4 <fb_print_string+0x28>
30002e90:	e24bd00c 	sub	sp, fp, #12	; 0xc
30002e94:	e89da800 	ldmia	sp, {fp, sp, pc}
30002e98:	300078a8 	andcc	r7, r0, r8, lsr #17

30002e9c <lcd_test>:
30002e9c:	e1a0c00d 	mov	ip, sp
30002ea0:	e92dd800 	stmdb	sp!, {fp, ip, lr, pc}
30002ea4:	e24cb004 	sub	fp, ip, #4	; 0x4
30002ea8:	e24dd024 	sub	sp, sp, #36	; 0x24
30002eac:	eb00038f 	bl	30003cf0 <lcd_init>
30002eb0:	eb000384 	bl	30003cc8 <lcd_enable>
30002eb4:	e24b3010 	sub	r3, fp, #16	; 0x10
30002eb8:	e24b2014 	sub	r2, fp, #20	; 0x14
30002ebc:	e24bc018 	sub	ip, fp, #24	; 0x18
30002ec0:	e24be01c 	sub	lr, fp, #28	; 0x1c
30002ec4:	e1a00003 	mov	r0, r3
30002ec8:	e1a01002 	mov	r1, r2
30002ecc:	e1a0200c 	mov	r2, ip
30002ed0:	e1a0300e 	mov	r3, lr
30002ed4:	eb00035c 	bl	30003c4c <get_lcd_params>
30002ed8:	ebfffdee 	bl	30002698 <fb_get_lcd_params>
30002edc:	ebffff65 	bl	30002c78 <font_init>
30002ee0:	e51b301c 	ldr	r3, [fp, #-28]
30002ee4:	e3530010 	cmp	r3, #16	; 0x10
30002ee8:	1a000073 	bne	300030bc <lcd_test+0x220>
30002eec:	e51b3010 	ldr	r3, [fp, #-16]
30002ef0:	e50b3028 	str	r3, [fp, #-40]
30002ef4:	e3a03000 	mov	r3, #0	; 0x0
30002ef8:	e50b3020 	str	r3, [fp, #-32]
30002efc:	e51b2020 	ldr	r2, [fp, #-32]
30002f00:	e51b3014 	ldr	r3, [fp, #-20]
30002f04:	e1520003 	cmp	r2, r3
30002f08:	aa000014 	bge	30002f60 <lcd_test+0xc4>
30002f0c:	e3a03000 	mov	r3, #0	; 0x0
30002f10:	e50b3024 	str	r3, [fp, #-36]
30002f14:	e51b2024 	ldr	r2, [fp, #-36]
30002f18:	e51b3018 	ldr	r3, [fp, #-24]
30002f1c:	e1520003 	cmp	r2, r3
30002f20:	aa00000a 	bge	30002f50 <lcd_test+0xb4>
30002f24:	e24b0028 	sub	r0, fp, #40	; 0x28
30002f28:	e5902000 	ldr	r2, [r0]
30002f2c:	e1a01002 	mov	r1, r2
30002f30:	e3a03b3e 	mov	r3, #63488	; 0xf800
30002f34:	e1c130b0 	strh	r3, [r1]
30002f38:	e2822002 	add	r2, r2, #2	; 0x2
30002f3c:	e5802000 	str	r2, [r0]
30002f40:	e51b3024 	ldr	r3, [fp, #-36]
30002f44:	e2833001 	add	r3, r3, #1	; 0x1
30002f48:	e50b3024 	str	r3, [fp, #-36]
30002f4c:	eafffff0 	b	30002f14 <lcd_test+0x78>
30002f50:	e51b3020 	ldr	r3, [fp, #-32]
30002f54:	e2833001 	add	r3, r3, #1	; 0x1
30002f58:	e50b3020 	str	r3, [fp, #-32]
30002f5c:	eaffffe6 	b	30002efc <lcd_test+0x60>
30002f60:	e51b3010 	ldr	r3, [fp, #-16]
30002f64:	e50b3028 	str	r3, [fp, #-40]
30002f68:	e3a03000 	mov	r3, #0	; 0x0
30002f6c:	e50b3020 	str	r3, [fp, #-32]
30002f70:	e51b2020 	ldr	r2, [fp, #-32]
30002f74:	e51b3014 	ldr	r3, [fp, #-20]
30002f78:	e1520003 	cmp	r2, r3
30002f7c:	aa000014 	bge	30002fd4 <lcd_test+0x138>
30002f80:	e3a03000 	mov	r3, #0	; 0x0
30002f84:	e50b3024 	str	r3, [fp, #-36]
30002f88:	e51b2024 	ldr	r2, [fp, #-36]
30002f8c:	e51b3018 	ldr	r3, [fp, #-24]
30002f90:	e1520003 	cmp	r2, r3
30002f94:	aa00000a 	bge	30002fc4 <lcd_test+0x128>
30002f98:	e24b0028 	sub	r0, fp, #40	; 0x28
30002f9c:	e5902000 	ldr	r2, [r0]
30002fa0:	e1a01002 	mov	r1, r2
30002fa4:	e3a03e7e 	mov	r3, #2016	; 0x7e0
30002fa8:	e1c130b0 	strh	r3, [r1]
30002fac:	e2822002 	add	r2, r2, #2	; 0x2
30002fb0:	e5802000 	str	r2, [r0]
30002fb4:	e51b3024 	ldr	r3, [fp, #-36]
30002fb8:	e2833001 	add	r3, r3, #1	; 0x1
30002fbc:	e50b3024 	str	r3, [fp, #-36]
30002fc0:	eafffff0 	b	30002f88 <lcd_test+0xec>
30002fc4:	e51b3020 	ldr	r3, [fp, #-32]
30002fc8:	e2833001 	add	r3, r3, #1	; 0x1
30002fcc:	e50b3020 	str	r3, [fp, #-32]
30002fd0:	eaffffe6 	b	30002f70 <lcd_test+0xd4>
30002fd4:	e51b3010 	ldr	r3, [fp, #-16]
30002fd8:	e50b3028 	str	r3, [fp, #-40]
30002fdc:	e3a03000 	mov	r3, #0	; 0x0
30002fe0:	e50b3020 	str	r3, [fp, #-32]
30002fe4:	e51b2020 	ldr	r2, [fp, #-32]
30002fe8:	e51b3014 	ldr	r3, [fp, #-20]
30002fec:	e1520003 	cmp	r2, r3
30002ff0:	aa000014 	bge	30003048 <lcd_test+0x1ac>
30002ff4:	e3a03000 	mov	r3, #0	; 0x0
30002ff8:	e50b3024 	str	r3, [fp, #-36]
30002ffc:	e51b2024 	ldr	r2, [fp, #-36]
30003000:	e51b3018 	ldr	r3, [fp, #-24]
30003004:	e1520003 	cmp	r2, r3
30003008:	aa00000a 	bge	30003038 <lcd_test+0x19c>
3000300c:	e24b0028 	sub	r0, fp, #40	; 0x28
30003010:	e5902000 	ldr	r2, [r0]
30003014:	e1a01002 	mov	r1, r2
30003018:	e3a0301f 	mov	r3, #31	; 0x1f
3000301c:	e1c130b0 	strh	r3, [r1]
30003020:	e2822002 	add	r2, r2, #2	; 0x2
30003024:	e5802000 	str	r2, [r0]
30003028:	e51b3024 	ldr	r3, [fp, #-36]
3000302c:	e2833001 	add	r3, r3, #1	; 0x1
30003030:	e50b3024 	str	r3, [fp, #-36]
30003034:	eafffff0 	b	30002ffc <lcd_test+0x160>
30003038:	e51b3020 	ldr	r3, [fp, #-32]
3000303c:	e2833001 	add	r3, r3, #1	; 0x1
30003040:	e50b3020 	str	r3, [fp, #-32]
30003044:	eaffffe6 	b	30002fe4 <lcd_test+0x148>
30003048:	e51b3010 	ldr	r3, [fp, #-16]
3000304c:	e50b3028 	str	r3, [fp, #-40]
30003050:	e3a03000 	mov	r3, #0	; 0x0
30003054:	e50b3020 	str	r3, [fp, #-32]
30003058:	e51b2020 	ldr	r2, [fp, #-32]
3000305c:	e51b3014 	ldr	r3, [fp, #-20]
30003060:	e1520003 	cmp	r2, r3
30003064:	aa00008b 	bge	30003298 <lcd_test+0x3fc>
30003068:	e3a03000 	mov	r3, #0	; 0x0
3000306c:	e50b3024 	str	r3, [fp, #-36]
30003070:	e51b2024 	ldr	r2, [fp, #-36]
30003074:	e51b3018 	ldr	r3, [fp, #-24]
30003078:	e1520003 	cmp	r2, r3
3000307c:	aa00000a 	bge	300030ac <lcd_test+0x210>
30003080:	e24b0028 	sub	r0, fp, #40	; 0x28
30003084:	e5902000 	ldr	r2, [r0]
30003088:	e1a01002 	mov	r1, r2
3000308c:	e3a03000 	mov	r3, #0	; 0x0
30003090:	e1c130b0 	strh	r3, [r1]
30003094:	e2822002 	add	r2, r2, #2	; 0x2
30003098:	e5802000 	str	r2, [r0]
3000309c:	e51b3024 	ldr	r3, [fp, #-36]
300030a0:	e2833001 	add	r3, r3, #1	; 0x1
300030a4:	e50b3024 	str	r3, [fp, #-36]
300030a8:	eafffff0 	b	30003070 <lcd_test+0x1d4>
300030ac:	e51b3020 	ldr	r3, [fp, #-32]
300030b0:	e2833001 	add	r3, r3, #1	; 0x1
300030b4:	e50b3020 	str	r3, [fp, #-32]
300030b8:	eaffffe6 	b	30003058 <lcd_test+0x1bc>
300030bc:	e51b301c 	ldr	r3, [fp, #-28]
300030c0:	e3530020 	cmp	r3, #32	; 0x20
300030c4:	1a000073 	bne	30003298 <lcd_test+0x3fc>
300030c8:	e51b3010 	ldr	r3, [fp, #-16]
300030cc:	e50b302c 	str	r3, [fp, #-44]
300030d0:	e3a03000 	mov	r3, #0	; 0x0
300030d4:	e50b3020 	str	r3, [fp, #-32]
300030d8:	e51b2020 	ldr	r2, [fp, #-32]
300030dc:	e51b3014 	ldr	r3, [fp, #-20]
300030e0:	e1520003 	cmp	r2, r3
300030e4:	aa000014 	bge	3000313c <lcd_test+0x2a0>
300030e8:	e3a03000 	mov	r3, #0	; 0x0
300030ec:	e50b3024 	str	r3, [fp, #-36]
300030f0:	e51b2024 	ldr	r2, [fp, #-36]
300030f4:	e51b3018 	ldr	r3, [fp, #-24]
300030f8:	e1520003 	cmp	r2, r3
300030fc:	aa00000a 	bge	3000312c <lcd_test+0x290>
30003100:	e24b002c 	sub	r0, fp, #44	; 0x2c
30003104:	e5903000 	ldr	r3, [r0]
30003108:	e1a01003 	mov	r1, r3
3000310c:	e3a028ff 	mov	r2, #16711680	; 0xff0000
30003110:	e5812000 	str	r2, [r1]
30003114:	e2833004 	add	r3, r3, #4	; 0x4
30003118:	e5803000 	str	r3, [r0]
3000311c:	e51b3024 	ldr	r3, [fp, #-36]
30003120:	e2833001 	add	r3, r3, #1	; 0x1
30003124:	e50b3024 	str	r3, [fp, #-36]
30003128:	eafffff0 	b	300030f0 <lcd_test+0x254>
3000312c:	e51b3020 	ldr	r3, [fp, #-32]
30003130:	e2833001 	add	r3, r3, #1	; 0x1
30003134:	e50b3020 	str	r3, [fp, #-32]
30003138:	eaffffe6 	b	300030d8 <lcd_test+0x23c>
3000313c:	e51b3010 	ldr	r3, [fp, #-16]
30003140:	e50b302c 	str	r3, [fp, #-44]
30003144:	e3a03000 	mov	r3, #0	; 0x0
30003148:	e50b3020 	str	r3, [fp, #-32]
3000314c:	e51b2020 	ldr	r2, [fp, #-32]
30003150:	e51b3014 	ldr	r3, [fp, #-20]
30003154:	e1520003 	cmp	r2, r3
30003158:	aa000014 	bge	300031b0 <lcd_test+0x314>
3000315c:	e3a03000 	mov	r3, #0	; 0x0
30003160:	e50b3024 	str	r3, [fp, #-36]
30003164:	e51b2024 	ldr	r2, [fp, #-36]
30003168:	e51b3018 	ldr	r3, [fp, #-24]
3000316c:	e1520003 	cmp	r2, r3
30003170:	aa00000a 	bge	300031a0 <lcd_test+0x304>
30003174:	e24b002c 	sub	r0, fp, #44	; 0x2c
30003178:	e5903000 	ldr	r3, [r0]
3000317c:	e1a01003 	mov	r1, r3
30003180:	e3a02cff 	mov	r2, #65280	; 0xff00
30003184:	e5812000 	str	r2, [r1]
30003188:	e2833004 	add	r3, r3, #4	; 0x4
3000318c:	e5803000 	str	r3, [r0]
30003190:	e51b3024 	ldr	r3, [fp, #-36]
30003194:	e2833001 	add	r3, r3, #1	; 0x1
30003198:	e50b3024 	str	r3, [fp, #-36]
3000319c:	eafffff0 	b	30003164 <lcd_test+0x2c8>
300031a0:	e51b3020 	ldr	r3, [fp, #-32]
300031a4:	e2833001 	add	r3, r3, #1	; 0x1
300031a8:	e50b3020 	str	r3, [fp, #-32]
300031ac:	eaffffe6 	b	3000314c <lcd_test+0x2b0>
300031b0:	e51b3010 	ldr	r3, [fp, #-16]
300031b4:	e50b302c 	str	r3, [fp, #-44]
300031b8:	e3a03000 	mov	r3, #0	; 0x0
300031bc:	e50b3020 	str	r3, [fp, #-32]
300031c0:	e51b2020 	ldr	r2, [fp, #-32]
300031c4:	e51b3014 	ldr	r3, [fp, #-20]
300031c8:	e1520003 	cmp	r2, r3
300031cc:	aa000014 	bge	30003224 <lcd_test+0x388>
300031d0:	e3a03000 	mov	r3, #0	; 0x0
300031d4:	e50b3024 	str	r3, [fp, #-36]
300031d8:	e51b2024 	ldr	r2, [fp, #-36]
300031dc:	e51b3018 	ldr	r3, [fp, #-24]
300031e0:	e1520003 	cmp	r2, r3
300031e4:	aa00000a 	bge	30003214 <lcd_test+0x378>
300031e8:	e24b002c 	sub	r0, fp, #44	; 0x2c
300031ec:	e5903000 	ldr	r3, [r0]
300031f0:	e1a01003 	mov	r1, r3
300031f4:	e3a020ff 	mov	r2, #255	; 0xff
300031f8:	e5812000 	str	r2, [r1]
300031fc:	e2833004 	add	r3, r3, #4	; 0x4
30003200:	e5803000 	str	r3, [r0]
30003204:	e51b3024 	ldr	r3, [fp, #-36]
30003208:	e2833001 	add	r3, r3, #1	; 0x1
3000320c:	e50b3024 	str	r3, [fp, #-36]
30003210:	eafffff0 	b	300031d8 <lcd_test+0x33c>
30003214:	e51b3020 	ldr	r3, [fp, #-32]
30003218:	e2833001 	add	r3, r3, #1	; 0x1
3000321c:	e50b3020 	str	r3, [fp, #-32]
30003220:	eaffffe6 	b	300031c0 <lcd_test+0x324>
30003224:	e51b3010 	ldr	r3, [fp, #-16]
30003228:	e50b302c 	str	r3, [fp, #-44]
3000322c:	e3a03000 	mov	r3, #0	; 0x0
30003230:	e50b3020 	str	r3, [fp, #-32]
30003234:	e51b2020 	ldr	r2, [fp, #-32]
30003238:	e51b3014 	ldr	r3, [fp, #-20]
3000323c:	e1520003 	cmp	r2, r3
30003240:	aa000014 	bge	30003298 <lcd_test+0x3fc>
30003244:	e3a03000 	mov	r3, #0	; 0x0
30003248:	e50b3024 	str	r3, [fp, #-36]
3000324c:	e51b2024 	ldr	r2, [fp, #-36]
30003250:	e51b3018 	ldr	r3, [fp, #-24]
30003254:	e1520003 	cmp	r2, r3
30003258:	aa00000a 	bge	30003288 <lcd_test+0x3ec>
3000325c:	e24b002c 	sub	r0, fp, #44	; 0x2c
30003260:	e5903000 	ldr	r3, [r0]
30003264:	e1a01003 	mov	r1, r3
30003268:	e3a02000 	mov	r2, #0	; 0x0
3000326c:	e5812000 	str	r2, [r1]
30003270:	e2833004 	add	r3, r3, #4	; 0x4
30003274:	e5803000 	str	r3, [r0]
30003278:	e51b3024 	ldr	r3, [fp, #-36]
3000327c:	e2833001 	add	r3, r3, #1	; 0x1
30003280:	e50b3024 	str	r3, [fp, #-36]
30003284:	eafffff0 	b	3000324c <lcd_test+0x3b0>
30003288:	e51b3020 	ldr	r3, [fp, #-32]
3000328c:	e2833001 	add	r3, r3, #1	; 0x1
30003290:	e50b3020 	str	r3, [fp, #-32]
30003294:	eaffffe6 	b	30003234 <lcd_test+0x398>
30003298:	e3a00ffa 	mov	r0, #1000	; 0x3e8
3000329c:	eb000579 	bl	30004888 <delay>
300032a0:	e51b3014 	ldr	r3, [fp, #-20]
300032a4:	e2432001 	sub	r2, r3, #1	; 0x1
300032a8:	e3a038ff 	mov	r3, #16711680	; 0xff0000
300032ac:	e58d3000 	str	r3, [sp]
300032b0:	e3a00000 	mov	r0, #0	; 0x0
300032b4:	e3a01000 	mov	r1, #0	; 0x0
300032b8:	e3a03000 	mov	r3, #0	; 0x0
300032bc:	ebfffb92 	bl	3000210c <draw_line>
300032c0:	e51b3014 	ldr	r3, [fp, #-20]
300032c4:	e2432001 	sub	r2, r3, #1	; 0x1
300032c8:	e51b3014 	ldr	r3, [fp, #-20]
300032cc:	e243c001 	sub	ip, r3, #1	; 0x1
300032d0:	e51b3018 	ldr	r3, [fp, #-24]
300032d4:	e243e001 	sub	lr, r3, #1	; 0x1
300032d8:	e3a038ff 	mov	r3, #16711680	; 0xff0000
300032dc:	e2833cff 	add	r3, r3, #65280	; 0xff00
300032e0:	e58d3000 	str	r3, [sp]
300032e4:	e1a00002 	mov	r0, r2
300032e8:	e3a01000 	mov	r1, #0	; 0x0
300032ec:	e1a0200c 	mov	r2, ip
300032f0:	e1a0300e 	mov	r3, lr
300032f4:	ebfffb84 	bl	3000210c <draw_line>
300032f8:	e51b3018 	ldr	r3, [fp, #-24]
300032fc:	e2432001 	sub	r2, r3, #1	; 0x1
30003300:	e51b3014 	ldr	r3, [fp, #-20]
30003304:	e243c001 	sub	ip, r3, #1	; 0x1
30003308:	e51b3018 	ldr	r3, [fp, #-24]
3000330c:	e243e001 	sub	lr, r3, #1	; 0x1
30003310:	e3a038ff 	mov	r3, #16711680	; 0xff0000
30003314:	e28330aa 	add	r3, r3, #170	; 0xaa
30003318:	e58d3000 	str	r3, [sp]
3000331c:	e3a00000 	mov	r0, #0	; 0x0
30003320:	e1a01002 	mov	r1, r2
30003324:	e1a0200c 	mov	r2, ip
30003328:	e1a0300e 	mov	r3, lr
3000332c:	ebfffb76 	bl	3000210c <draw_line>
30003330:	e51b3018 	ldr	r3, [fp, #-24]
30003334:	e243c001 	sub	ip, r3, #1	; 0x1
30003338:	e3a038ff 	mov	r3, #16711680	; 0xff0000
3000333c:	e28330ef 	add	r3, r3, #239	; 0xef
30003340:	e58d3000 	str	r3, [sp]
30003344:	e3a00000 	mov	r0, #0	; 0x0
30003348:	e3a01000 	mov	r1, #0	; 0x0
3000334c:	e3a02000 	mov	r2, #0	; 0x0
30003350:	e1a0300c 	mov	r3, ip
30003354:	ebfffb6c 	bl	3000210c <draw_line>
30003358:	e51b3014 	ldr	r3, [fp, #-20]
3000335c:	e2432001 	sub	r2, r3, #1	; 0x1
30003360:	e51b3018 	ldr	r3, [fp, #-24]
30003364:	e243c001 	sub	ip, r3, #1	; 0x1
30003368:	e3a038ff 	mov	r3, #16711680	; 0xff0000
3000336c:	e2833c45 	add	r3, r3, #17664	; 0x4500
30003370:	e58d3000 	str	r3, [sp]
30003374:	e3a00000 	mov	r0, #0	; 0x0
30003378:	e3a01000 	mov	r1, #0	; 0x0
3000337c:	e1a0300c 	mov	r3, ip
30003380:	ebfffb61 	bl	3000210c <draw_line>
30003384:	e51b3014 	ldr	r3, [fp, #-20]
30003388:	e2432001 	sub	r2, r3, #1	; 0x1
3000338c:	e51b3018 	ldr	r3, [fp, #-24]
30003390:	e243c001 	sub	ip, r3, #1	; 0x1
30003394:	e3a038ff 	mov	r3, #16711680	; 0xff0000
30003398:	e2833d1e 	add	r3, r3, #1920	; 0x780
3000339c:	e58d3000 	str	r3, [sp]
300033a0:	e1a00002 	mov	r0, r2
300033a4:	e3a01000 	mov	r1, #0	; 0x0
300033a8:	e3a02000 	mov	r2, #0	; 0x0
300033ac:	e1a0300c 	mov	r3, ip
300033b0:	ebfffb55 	bl	3000210c <draw_line>
300033b4:	e3a00ffa 	mov	r0, #1000	; 0x3e8
300033b8:	eb000532 	bl	30004888 <delay>
300033bc:	e51b2014 	ldr	r2, [fp, #-20]
300033c0:	e1a03fc2 	mov	r3, r2, asr #31
300033c4:	e1a03fa3 	mov	r3, r3, lsr #31
300033c8:	e0823003 	add	r3, r2, r3
300033cc:	e1a000c3 	mov	r0, r3, asr #1
300033d0:	e51b2018 	ldr	r2, [fp, #-24]
300033d4:	e1a03fc2 	mov	r3, r2, asr #31
300033d8:	e1a03fa3 	mov	r3, r3, lsr #31
300033dc:	e0823003 	add	r3, r2, r3
300033e0:	e1a010c3 	mov	r1, r3, asr #1
300033e4:	e51b2018 	ldr	r2, [fp, #-24]
300033e8:	e1a03fc2 	mov	r3, r2, asr #31
300033ec:	e1a03f23 	mov	r3, r3, lsr #30
300033f0:	e0823003 	add	r3, r2, r3
300033f4:	e1a03143 	mov	r3, r3, asr #2
300033f8:	e1a02003 	mov	r2, r3
300033fc:	e3a03cff 	mov	r3, #65280	; 0xff00
30003400:	ebfffabc 	bl	30001ef8 <draw_circle>
30003404:	e3a0000a 	mov	r0, #10	; 0xa
30003408:	e3a0100a 	mov	r1, #10	; 0xa
3000340c:	e59f200c 	ldr	r2, [pc, #12]	; 30003420 <.text+0x3420>
30003410:	e3a03cff 	mov	r3, #65280	; 0xff00
30003414:	ebfffe60 	bl	30002d9c <fb_print_string>
30003418:	e24bd00c 	sub	sp, fp, #12	; 0xc
3000341c:	e89da800 	ldmia	sp, {fp, sp, pc}
30003420:	30006418 	andcc	r6, r0, r8, lsl r4

30003424 <register_lcd_controller>:
30003424:	e1a0c00d 	mov	ip, sp
30003428:	e92dd800 	stmdb	sp!, {fp, ip, lr, pc}
3000342c:	e24cb004 	sub	fp, ip, #4	; 0x4
30003430:	e24dd00c 	sub	sp, sp, #12	; 0xc
30003434:	e50b0010 	str	r0, [fp, #-16]
30003438:	e3a03000 	mov	r3, #0	; 0x0
3000343c:	e50b3014 	str	r3, [fp, #-20]
30003440:	e51b3014 	ldr	r3, [fp, #-20]
30003444:	e3530009 	cmp	r3, #9	; 0x9
30003448:	ca00000f 	bgt	3000348c <register_lcd_controller+0x68>
3000344c:	e59f304c 	ldr	r3, [pc, #76]	; 300034a0 <.text+0x34a0>
30003450:	e51b2014 	ldr	r2, [fp, #-20]
30003454:	e7933102 	ldr	r3, [r3, r2, lsl #2]
30003458:	e3530000 	cmp	r3, #0	; 0x0
3000345c:	1a000006 	bne	3000347c <register_lcd_controller+0x58>
30003460:	e59f1038 	ldr	r1, [pc, #56]	; 300034a0 <.text+0x34a0>
30003464:	e51b2014 	ldr	r2, [fp, #-20]
30003468:	e51b3010 	ldr	r3, [fp, #-16]
3000346c:	e7813102 	str	r3, [r1, r2, lsl #2]
30003470:	e51b3014 	ldr	r3, [fp, #-20]
30003474:	e50b3018 	str	r3, [fp, #-24]
30003478:	ea000005 	b	30003494 <register_lcd_controller+0x70>
3000347c:	e51b3014 	ldr	r3, [fp, #-20]
30003480:	e2833001 	add	r3, r3, #1	; 0x1
30003484:	e50b3014 	str	r3, [fp, #-20]
30003488:	eaffffec 	b	30003440 <register_lcd_controller+0x1c>
3000348c:	e3e03000 	mvn	r3, #0	; 0x0
30003490:	e50b3018 	str	r3, [fp, #-24]
30003494:	e51b0018 	ldr	r0, [fp, #-24]
30003498:	e24bd00c 	sub	sp, fp, #12	; 0xc
3000349c:	e89da800 	ldmia	sp, {fp, sp, pc}
300034a0:	300078b4 	strcch	r7, [r0], -r4

300034a4 <select_lcd_controller>:
300034a4:	e1a0c00d 	mov	ip, sp
300034a8:	e92dd800 	stmdb	sp!, {fp, ip, lr, pc}
300034ac:	e24cb004 	sub	fp, ip, #4	; 0x4
300034b0:	e24dd00c 	sub	sp, sp, #12	; 0xc
300034b4:	e50b0010 	str	r0, [fp, #-16]
300034b8:	e3a03000 	mov	r3, #0	; 0x0
300034bc:	e50b3014 	str	r3, [fp, #-20]
300034c0:	e51b3014 	ldr	r3, [fp, #-20]
300034c4:	e3530009 	cmp	r3, #9	; 0x9
300034c8:	ca000019 	bgt	30003534 <select_lcd_controller+0x90>
300034cc:	e59f3074 	ldr	r3, [pc, #116]	; 30003548 <.text+0x3548>
300034d0:	e51b2014 	ldr	r2, [fp, #-20]
300034d4:	e7933102 	ldr	r3, [r3, r2, lsl #2]
300034d8:	e3530000 	cmp	r3, #0	; 0x0
300034dc:	0a000010 	beq	30003524 <select_lcd_controller+0x80>
300034e0:	e59f2060 	ldr	r2, [pc, #96]	; 30003548 <.text+0x3548>
300034e4:	e51b3014 	ldr	r3, [fp, #-20]
300034e8:	e7923103 	ldr	r3, [r2, r3, lsl #2]
300034ec:	e5930000 	ldr	r0, [r3]
300034f0:	e51b1010 	ldr	r1, [fp, #-16]
300034f4:	ebfff770 	bl	300012bc <strcmp>
300034f8:	e1a03000 	mov	r3, r0
300034fc:	e3530000 	cmp	r3, #0	; 0x0
30003500:	1a000007 	bne	30003524 <select_lcd_controller+0x80>
30003504:	e59f1040 	ldr	r1, [pc, #64]	; 3000354c <.text+0x354c>
30003508:	e59f2038 	ldr	r2, [pc, #56]	; 30003548 <.text+0x3548>
3000350c:	e51b3014 	ldr	r3, [fp, #-20]
30003510:	e7923103 	ldr	r3, [r2, r3, lsl #2]
30003514:	e5813000 	str	r3, [r1]
30003518:	e51b3014 	ldr	r3, [fp, #-20]
3000351c:	e50b3018 	str	r3, [fp, #-24]
30003520:	ea000005 	b	3000353c <select_lcd_controller+0x98>
30003524:	e51b3014 	ldr	r3, [fp, #-20]
30003528:	e2833001 	add	r3, r3, #1	; 0x1
3000352c:	e50b3014 	str	r3, [fp, #-20]
30003530:	eaffffe2 	b	300034c0 <select_lcd_controller+0x1c>
30003534:	e3e03000 	mvn	r3, #0	; 0x0
30003538:	e50b3018 	str	r3, [fp, #-24]
3000353c:	e51b0018 	ldr	r0, [fp, #-24]
30003540:	e24bd00c 	sub	sp, fp, #12	; 0xc
30003544:	e89da800 	ldmia	sp, {fp, sp, pc}
30003548:	300078b4 	strcch	r7, [r0], -r4
3000354c:	300078dc 	ldrccd	r7, [r0], -ip

30003550 <lcd_controller_init>:
30003550:	e1a0c00d 	mov	ip, sp
30003554:	e92dd800 	stmdb	sp!, {fp, ip, lr, pc}
30003558:	e24cb004 	sub	fp, ip, #4	; 0x4
3000355c:	e24dd008 	sub	sp, sp, #8	; 0x8
30003560:	e50b0010 	str	r0, [fp, #-16]
30003564:	e59f3040 	ldr	r3, [pc, #64]	; 300035ac <.text+0x35ac>
30003568:	e5933000 	ldr	r3, [r3]
3000356c:	e3530000 	cmp	r3, #0	; 0x0
30003570:	0a000008 	beq	30003598 <lcd_controller_init+0x48>
30003574:	e59f3030 	ldr	r3, [pc, #48]	; 300035ac <.text+0x35ac>
30003578:	e5933000 	ldr	r3, [r3]
3000357c:	e5933004 	ldr	r3, [r3, #4]
30003580:	e51b0010 	ldr	r0, [fp, #-16]
30003584:	e1a0e00f 	mov	lr, pc
30003588:	e1a0f003 	mov	pc, r3
3000358c:	e3a03000 	mov	r3, #0	; 0x0
30003590:	e50b3014 	str	r3, [fp, #-20]
30003594:	ea000001 	b	300035a0 <lcd_controller_init+0x50>
30003598:	e3e03000 	mvn	r3, #0	; 0x0
3000359c:	e50b3014 	str	r3, [fp, #-20]
300035a0:	e51b0014 	ldr	r0, [fp, #-20]
300035a4:	e24bd00c 	sub	sp, fp, #12	; 0xc
300035a8:	e89da800 	ldmia	sp, {fp, sp, pc}
300035ac:	300078dc 	ldrccd	r7, [r0], -ip

300035b0 <lcd_controller_enable>:
300035b0:	e1a0c00d 	mov	ip, sp
300035b4:	e92dd800 	stmdb	sp!, {fp, ip, lr, pc}
300035b8:	e24cb004 	sub	fp, ip, #4	; 0x4
300035bc:	e59f3020 	ldr	r3, [pc, #32]	; 300035e4 <.text+0x35e4>
300035c0:	e5933000 	ldr	r3, [r3]
300035c4:	e3530000 	cmp	r3, #0	; 0x0
300035c8:	0a000004 	beq	300035e0 <lcd_controller_enable+0x30>
300035cc:	e59f3010 	ldr	r3, [pc, #16]	; 300035e4 <.text+0x35e4>
300035d0:	e5933000 	ldr	r3, [r3]
300035d4:	e5933008 	ldr	r3, [r3, #8]
300035d8:	e1a0e00f 	mov	lr, pc
300035dc:	e1a0f003 	mov	pc, r3
300035e0:	e89da800 	ldmia	sp, {fp, sp, pc}
300035e4:	300078dc 	ldrccd	r7, [r0], -ip

300035e8 <lcd_controller_disable>:
300035e8:	e1a0c00d 	mov	ip, sp
300035ec:	e92dd800 	stmdb	sp!, {fp, ip, lr, pc}
300035f0:	e24cb004 	sub	fp, ip, #4	; 0x4
300035f4:	e59f3020 	ldr	r3, [pc, #32]	; 3000361c <.text+0x361c>
300035f8:	e5933000 	ldr	r3, [r3]
300035fc:	e3530000 	cmp	r3, #0	; 0x0
30003600:	0a000004 	beq	30003618 <lcd_controller_disable+0x30>
30003604:	e59f3010 	ldr	r3, [pc, #16]	; 3000361c <.text+0x361c>
30003608:	e5933000 	ldr	r3, [r3]
3000360c:	e593300c 	ldr	r3, [r3, #12]
30003610:	e1a0e00f 	mov	lr, pc
30003614:	e1a0f003 	mov	pc, r3
30003618:	e89da800 	ldmia	sp, {fp, sp, pc}
3000361c:	300078dc 	ldrccd	r7, [r0], -ip

30003620 <lcd_contoller_add>:
30003620:	e1a0c00d 	mov	ip, sp
30003624:	e92dd800 	stmdb	sp!, {fp, ip, lr, pc}
30003628:	e24cb004 	sub	fp, ip, #4	; 0x4
3000362c:	ebfffd8a 	bl	30002c5c <s3c2440_lcd_contoller_add>
30003630:	e89da800 	ldmia	sp, {fp, sp, pc}

30003634 <lcd_4_3_add>:
30003634:	e1a0c00d 	mov	ip, sp
30003638:	e92dd800 	stmdb	sp!, {fp, ip, lr, pc}
3000363c:	e24cb004 	sub	fp, ip, #4	; 0x4
30003640:	e59f0004 	ldr	r0, [pc, #4]	; 3000364c <.text+0x364c>
30003644:	eb000135 	bl	30003b20 <register_lcd>
30003648:	e89da800 	ldmia	sp, {fp, sp, pc}
3000364c:	3000784c 	andcc	r7, r0, ip, asr #16

30003650 <x_y_swap>:
30003650:	e1a0c00d 	mov	ip, sp
30003654:	e92dd800 	stmdb	sp!, {fp, ip, lr, pc}
30003658:	e24cb004 	sub	fp, ip, #4	; 0x4
3000365c:	e24dd014 	sub	sp, sp, #20	; 0x14
30003660:	e50b0010 	str	r0, [fp, #-16]
30003664:	e50b1014 	str	r1, [fp, #-20]
30003668:	e50b2018 	str	r2, [fp, #-24]
3000366c:	e3a03000 	mov	r3, #0	; 0x0
30003670:	e50b301c 	str	r3, [fp, #-28]
30003674:	e3a03000 	mov	r3, #0	; 0x0
30003678:	e50b301c 	str	r3, [fp, #-28]
3000367c:	e51b201c 	ldr	r2, [fp, #-28]
30003680:	e51b3018 	ldr	r3, [fp, #-24]
30003684:	e1520003 	cmp	r2, r3
30003688:	aa000013 	bge	300036dc <x_y_swap+0x8c>
3000368c:	e51b3010 	ldr	r3, [fp, #-16]
30003690:	e5933000 	ldr	r3, [r3]
30003694:	e50b3020 	str	r3, [fp, #-32]
30003698:	e51b2010 	ldr	r2, [fp, #-16]
3000369c:	e51b3014 	ldr	r3, [fp, #-20]
300036a0:	e5933000 	ldr	r3, [r3]
300036a4:	e5823000 	str	r3, [r2]
300036a8:	e51b2014 	ldr	r2, [fp, #-20]
300036ac:	e51b3020 	ldr	r3, [fp, #-32]
300036b0:	e5823000 	str	r3, [r2]
300036b4:	e51b3010 	ldr	r3, [fp, #-16]
300036b8:	e2833004 	add	r3, r3, #4	; 0x4
300036bc:	e50b3010 	str	r3, [fp, #-16]
300036c0:	e51b3014 	ldr	r3, [fp, #-20]
300036c4:	e2833004 	add	r3, r3, #4	; 0x4
300036c8:	e50b3014 	str	r3, [fp, #-20]
300036cc:	e51b301c 	ldr	r3, [fp, #-28]
300036d0:	e2833001 	add	r3, r3, #1	; 0x1
300036d4:	e50b301c 	str	r3, [fp, #-28]
300036d8:	eaffffe7 	b	3000367c <x_y_swap+0x2c>
300036dc:	e24bd00c 	sub	sp, fp, #12	; 0xc
300036e0:	e89da800 	ldmia	sp, {fp, sp, pc}

300036e4 <get_touchscreen_xy>:
300036e4:	e1a0c00d 	mov	ip, sp
300036e8:	e92dd800 	stmdb	sp!, {fp, ip, lr, pc}
300036ec:	e24cb004 	sub	fp, ip, #4	; 0x4
300036f0:	e24dd010 	sub	sp, sp, #16	; 0x10
300036f4:	e50b0010 	str	r0, [fp, #-16]
300036f8:	e50b1014 	str	r1, [fp, #-20]
300036fc:	e50b2018 	str	r2, [fp, #-24]
30003700:	e50b301c 	str	r3, [fp, #-28]
30003704:	e51b0010 	ldr	r0, [fp, #-16]
30003708:	e51b1014 	ldr	r1, [fp, #-20]
3000370c:	e3e024ff 	mvn	r2, #-16777216	; 0xff000000
30003710:	ebfffbc1 	bl	3000261c <fb_disp_cross>
30003714:	e51b0018 	ldr	r0, [fp, #-24]
30003718:	e51b101c 	ldr	r1, [fp, #-28]
3000371c:	eb00028f 	bl	30004160 <get_first_contact_xy>
30003720:	e24bd00c 	sub	sp, fp, #12	; 0xc
30003724:	e89da800 	ldmia	sp, {fp, sp, pc}

30003728 <lcd_map_init>:
30003728:	e1a0c00d 	mov	ip, sp
3000372c:	e92dd8f0 	stmdb	sp!, {r4, r5, r6, r7, fp, ip, lr, pc}
30003730:	e24cb004 	sub	fp, ip, #4	; 0x4
30003734:	e24dd048 	sub	sp, sp, #72	; 0x48
30003738:	e24b3020 	sub	r3, fp, #32	; 0x20
3000373c:	e24b2024 	sub	r2, fp, #36	; 0x24
30003740:	e24bc028 	sub	ip, fp, #40	; 0x28
30003744:	e24be02c 	sub	lr, fp, #44	; 0x2c
30003748:	e1a00003 	mov	r0, r3
3000374c:	e1a01002 	mov	r1, r2
30003750:	e1a0200c 	mov	r2, ip
30003754:	e1a0300e 	mov	r3, lr
30003758:	eb00013b 	bl	30003c4c <get_lcd_params>
3000375c:	e24b3040 	sub	r3, fp, #64	; 0x40
30003760:	e24bc054 	sub	ip, fp, #84	; 0x54
30003764:	e3a00032 	mov	r0, #50	; 0x32
30003768:	e3a01032 	mov	r1, #50	; 0x32
3000376c:	e1a02003 	mov	r2, r3
30003770:	e1a0300c 	mov	r3, ip
30003774:	ebffffda 	bl	300036e4 <get_touchscreen_xy>
30003778:	e51b3024 	ldr	r3, [fp, #-36]
3000377c:	e2432032 	sub	r2, r3, #50	; 0x32
30003780:	e24b3040 	sub	r3, fp, #64	; 0x40
30003784:	e283c004 	add	ip, r3, #4	; 0x4
30003788:	e24b3054 	sub	r3, fp, #84	; 0x54
3000378c:	e2833004 	add	r3, r3, #4	; 0x4
30003790:	e1a00002 	mov	r0, r2
30003794:	e3a01032 	mov	r1, #50	; 0x32
30003798:	e1a0200c 	mov	r2, ip
3000379c:	ebffffd0 	bl	300036e4 <get_touchscreen_xy>
300037a0:	e51b3024 	ldr	r3, [fp, #-36]
300037a4:	e2431032 	sub	r1, r3, #50	; 0x32
300037a8:	e51b3028 	ldr	r3, [fp, #-40]
300037ac:	e243c032 	sub	ip, r3, #50	; 0x32
300037b0:	e24b3040 	sub	r3, fp, #64	; 0x40
300037b4:	e2832008 	add	r2, r3, #8	; 0x8
300037b8:	e24b3054 	sub	r3, fp, #84	; 0x54
300037bc:	e2833008 	add	r3, r3, #8	; 0x8
300037c0:	e1a00001 	mov	r0, r1
300037c4:	e1a0100c 	mov	r1, ip
300037c8:	ebffffc5 	bl	300036e4 <get_touchscreen_xy>
300037cc:	e51b3028 	ldr	r3, [fp, #-40]
300037d0:	e2431032 	sub	r1, r3, #50	; 0x32
300037d4:	e24b3040 	sub	r3, fp, #64	; 0x40
300037d8:	e283200c 	add	r2, r3, #12	; 0xc
300037dc:	e24b3054 	sub	r3, fp, #84	; 0x54
300037e0:	e283300c 	add	r3, r3, #12	; 0xc
300037e4:	e3a00032 	mov	r0, #50	; 0x32
300037e8:	ebffffbd 	bl	300036e4 <get_touchscreen_xy>
300037ec:	e51b2024 	ldr	r2, [fp, #-36]
300037f0:	e1a03fc2 	mov	r3, r2, asr #31
300037f4:	e1a03fa3 	mov	r3, r3, lsr #31
300037f8:	e0823003 	add	r3, r2, r3
300037fc:	e1a010c3 	mov	r1, r3, asr #1
30003800:	e51b2028 	ldr	r2, [fp, #-40]
30003804:	e1a03fc2 	mov	r3, r2, asr #31
30003808:	e1a03fa3 	mov	r3, r3, lsr #31
3000380c:	e0823003 	add	r3, r2, r3
30003810:	e1a0c0c3 	mov	ip, r3, asr #1
30003814:	e24b3040 	sub	r3, fp, #64	; 0x40
30003818:	e2832010 	add	r2, r3, #16	; 0x10
3000381c:	e24b3054 	sub	r3, fp, #84	; 0x54
30003820:	e2833010 	add	r3, r3, #16	; 0x10
30003824:	e1a00001 	mov	r0, r1
30003828:	e1a0100c 	mov	r1, ip
3000382c:	ebffffac 	bl	300036e4 <get_touchscreen_xy>
30003830:	e51b203c 	ldr	r2, [fp, #-60]
30003834:	e51b3040 	ldr	r3, [fp, #-64]
30003838:	e0631002 	rsb	r1, r3, r2
3000383c:	e51b2050 	ldr	r2, [fp, #-80]
30003840:	e51b3054 	ldr	r3, [fp, #-84]
30003844:	e0633002 	rsb	r3, r3, r2
30003848:	e1510003 	cmp	r1, r3
3000384c:	aa00000a 	bge	3000387c <lcd_map_init+0x154>
30003850:	e59f2164 	ldr	r2, [pc, #356]	; 300039bc <.text+0x39bc>
30003854:	e3a03001 	mov	r3, #1	; 0x1
30003858:	e5823000 	str	r3, [r2]
3000385c:	e59f015c 	ldr	r0, [pc, #348]	; 300039c0 <.text+0x39c0>
30003860:	ebfff7e8 	bl	30001808 <printf>
30003864:	e24b3040 	sub	r3, fp, #64	; 0x40
30003868:	e24b2054 	sub	r2, fp, #84	; 0x54
3000386c:	e1a00003 	mov	r0, r3
30003870:	e1a01002 	mov	r1, r2
30003874:	e3a02005 	mov	r2, #5	; 0x5
30003878:	ebffff74 	bl	30003650 <x_y_swap>
3000387c:	e51b203c 	ldr	r2, [fp, #-60]
30003880:	e51b3040 	ldr	r3, [fp, #-64]
30003884:	e0631002 	rsb	r1, r3, r2
30003888:	e51b2038 	ldr	r2, [fp, #-56]
3000388c:	e51b3034 	ldr	r3, [fp, #-52]
30003890:	e0633002 	rsb	r3, r3, r2
30003894:	e0813003 	add	r3, r1, r3
30003898:	e50b3058 	str	r3, [fp, #-88]
3000389c:	e51b2048 	ldr	r2, [fp, #-72]
300038a0:	e51b3054 	ldr	r3, [fp, #-84]
300038a4:	e0631002 	rsb	r1, r3, r2
300038a8:	e51b204c 	ldr	r2, [fp, #-76]
300038ac:	e51b3050 	ldr	r3, [fp, #-80]
300038b0:	e0633002 	rsb	r3, r3, r2
300038b4:	e0813003 	add	r3, r1, r3
300038b8:	e50b305c 	str	r3, [fp, #-92]
300038bc:	e51b3024 	ldr	r3, [fp, #-36]
300038c0:	e1a03083 	mov	r3, r3, lsl #1
300038c4:	e24330c8 	sub	r3, r3, #200	; 0xc8
300038c8:	e50b3060 	str	r3, [fp, #-96]
300038cc:	e51b3028 	ldr	r3, [fp, #-40]
300038d0:	e1a03083 	mov	r3, r3, lsl #1
300038d4:	e24330c8 	sub	r3, r3, #200	; 0xc8
300038d8:	e50b3064 	str	r3, [fp, #-100]
300038dc:	e59f20e0 	ldr	r2, [pc, #224]	; 300039c4 <.text+0x39c4>
300038e0:	e51b3030 	ldr	r3, [fp, #-48]
300038e4:	e5823000 	str	r3, [r2]
300038e8:	e59f20d8 	ldr	r2, [pc, #216]	; 300039c8 <.text+0x39c8>
300038ec:	e51b3044 	ldr	r3, [fp, #-68]
300038f0:	e5823000 	str	r3, [r2]
300038f4:	e59f10d0 	ldr	r1, [pc, #208]	; 300039cc <.text+0x39cc>
300038f8:	e51b2024 	ldr	r2, [fp, #-36]
300038fc:	e1a03fc2 	mov	r3, r2, asr #31
30003900:	e1a03fa3 	mov	r3, r3, lsr #31
30003904:	e0823003 	add	r3, r2, r3
30003908:	e1a030c3 	mov	r3, r3, asr #1
3000390c:	e5813000 	str	r3, [r1]
30003910:	e59f10b8 	ldr	r1, [pc, #184]	; 300039d0 <.text+0x39d0>
30003914:	e51b2028 	ldr	r2, [fp, #-40]
30003918:	e1a03fc2 	mov	r3, r2, asr #31
3000391c:	e1a03fa3 	mov	r3, r3, lsr #31
30003920:	e0823003 	add	r3, r2, r3
30003924:	e1a030c3 	mov	r3, r3, asr #1
30003928:	e5813000 	str	r3, [r1]
3000392c:	e59f70a0 	ldr	r7, [pc, #160]	; 300039d4 <.text+0x39d4>
30003930:	e51b0060 	ldr	r0, [fp, #-96]
30003934:	eb00087a 	bl	30005b24 <__floatsidf>
30003938:	e1a06001 	mov	r6, r1
3000393c:	e1a05000 	mov	r5, r0
30003940:	e51b0058 	ldr	r0, [fp, #-88]
30003944:	eb000876 	bl	30005b24 <__floatsidf>
30003948:	e1a04001 	mov	r4, r1
3000394c:	e1a03000 	mov	r3, r0
30003950:	e1a01006 	mov	r1, r6
30003954:	e1a00005 	mov	r0, r5
30003958:	e1a02003 	mov	r2, r3
3000395c:	e1a03004 	mov	r3, r4
30003960:	eb000952 	bl	30005eb0 <__divdf3>
30003964:	e1a04001 	mov	r4, r1
30003968:	e1a03000 	mov	r3, r0
3000396c:	e8870018 	stmia	r7, {r3, r4}
30003970:	e59f7060 	ldr	r7, [pc, #96]	; 300039d8 <.text+0x39d8>
30003974:	e51b0064 	ldr	r0, [fp, #-100]
30003978:	eb000869 	bl	30005b24 <__floatsidf>
3000397c:	e1a06001 	mov	r6, r1
30003980:	e1a05000 	mov	r5, r0
30003984:	e51b005c 	ldr	r0, [fp, #-92]
30003988:	eb000865 	bl	30005b24 <__floatsidf>
3000398c:	e1a04001 	mov	r4, r1
30003990:	e1a03000 	mov	r3, r0
30003994:	e1a01006 	mov	r1, r6
30003998:	e1a00005 	mov	r0, r5
3000399c:	e1a02003 	mov	r2, r3
300039a0:	e1a03004 	mov	r3, r4
300039a4:	eb000941 	bl	30005eb0 <__divdf3>
300039a8:	e1a04001 	mov	r4, r1
300039ac:	e1a03000 	mov	r3, r0
300039b0:	e8870018 	stmia	r7, {r3, r4}
300039b4:	e24bd01c 	sub	sp, fp, #28	; 0x1c
300039b8:	e89da8f0 	ldmia	sp, {r4, r5, r6, r7, fp, sp, pc}
300039bc:	300078e0 	andcc	r7, r0, r0, ror #17
300039c0:	30006444 	andcc	r6, r0, r4, asr #8
300039c4:	30007a3c 	andcc	r7, r0, ip, lsr sl
300039c8:	30007a40 	andcc	r7, r0, r0, asr #20
300039cc:	30007a44 	andcc	r7, r0, r4, asr #20
300039d0:	30007a30 	andcc	r7, r0, r0, lsr sl
300039d4:	30007a48 	andcc	r7, r0, r8, asr #20
300039d8:	30007a34 	andcc	r7, r0, r4, lsr sl

300039dc <map_xy>:
300039dc:	e1a0c00d 	mov	ip, sp
300039e0:	e92dd810 	stmdb	sp!, {r4, fp, ip, lr, pc}
300039e4:	e24cb004 	sub	fp, ip, #4	; 0x4
300039e8:	e24dd01c 	sub	sp, sp, #28	; 0x1c
300039ec:	e50b0014 	str	r0, [fp, #-20]
300039f0:	e50b1018 	str	r1, [fp, #-24]
300039f4:	e50b201c 	str	r2, [fp, #-28]
300039f8:	e50b3020 	str	r3, [fp, #-32]
300039fc:	e59f3100 	ldr	r3, [pc, #256]	; 30003b04 <.text+0x3b04>
30003a00:	e5933000 	ldr	r3, [r3]
30003a04:	e3530000 	cmp	r3, #0	; 0x0
30003a08:	0a000005 	beq	30003a24 <map_xy+0x48>
30003a0c:	e51b3014 	ldr	r3, [fp, #-20]
30003a10:	e50b3024 	str	r3, [fp, #-36]
30003a14:	e51b3018 	ldr	r3, [fp, #-24]
30003a18:	e50b3014 	str	r3, [fp, #-20]
30003a1c:	e51b3024 	ldr	r3, [fp, #-36]
30003a20:	e50b3018 	str	r3, [fp, #-24]
30003a24:	e59f30dc 	ldr	r3, [pc, #220]	; 30003b08 <.text+0x3b08>
30003a28:	e51b2014 	ldr	r2, [fp, #-20]
30003a2c:	e5933000 	ldr	r3, [r3]
30003a30:	e0633002 	rsb	r3, r3, r2
30003a34:	e50b3028 	str	r3, [fp, #-40]
30003a38:	e59f30cc 	ldr	r3, [pc, #204]	; 30003b0c <.text+0x3b0c>
30003a3c:	e51b2018 	ldr	r2, [fp, #-24]
30003a40:	e5933000 	ldr	r3, [r3]
30003a44:	e0633002 	rsb	r3, r3, r2
30003a48:	e50b302c 	str	r3, [fp, #-44]
30003a4c:	e51b0028 	ldr	r0, [fp, #-40]
30003a50:	eb000833 	bl	30005b24 <__floatsidf>
30003a54:	e1a04001 	mov	r4, r1
30003a58:	e1a03000 	mov	r3, r0
30003a5c:	e59f20ac 	ldr	r2, [pc, #172]	; 30003b10 <.text+0x3b10>
30003a60:	e1a01004 	mov	r1, r4
30003a64:	e1a00003 	mov	r0, r3
30003a68:	e892000c 	ldmia	r2, {r2, r3}
30003a6c:	eb00084a 	bl	30005b9c <__muldf3>
30003a70:	e1a04001 	mov	r4, r1
30003a74:	e1a03000 	mov	r3, r0
30003a78:	e1a01004 	mov	r1, r4
30003a7c:	e1a00003 	mov	r0, r3
30003a80:	eb0009a5 	bl	3000611c <__fixdfsi>
30003a84:	e1a03000 	mov	r3, r0
30003a88:	e50b3028 	str	r3, [fp, #-40]
30003a8c:	e51b002c 	ldr	r0, [fp, #-44]
30003a90:	eb000823 	bl	30005b24 <__floatsidf>
30003a94:	e1a04001 	mov	r4, r1
30003a98:	e1a03000 	mov	r3, r0
30003a9c:	e59f2070 	ldr	r2, [pc, #112]	; 30003b14 <.text+0x3b14>
30003aa0:	e1a01004 	mov	r1, r4
30003aa4:	e1a00003 	mov	r0, r3
30003aa8:	e892000c 	ldmia	r2, {r2, r3}
30003aac:	eb00083a 	bl	30005b9c <__muldf3>
30003ab0:	e1a04001 	mov	r4, r1
30003ab4:	e1a03000 	mov	r3, r0
30003ab8:	e1a01004 	mov	r1, r4
30003abc:	e1a00003 	mov	r0, r3
30003ac0:	eb000995 	bl	3000611c <__fixdfsi>
30003ac4:	e1a03000 	mov	r3, r0
30003ac8:	e50b302c 	str	r3, [fp, #-44]
30003acc:	e51b101c 	ldr	r1, [fp, #-28]
30003ad0:	e59f3040 	ldr	r3, [pc, #64]	; 30003b18 <.text+0x3b18>
30003ad4:	e51b2028 	ldr	r2, [fp, #-40]
30003ad8:	e5933000 	ldr	r3, [r3]
30003adc:	e0823003 	add	r3, r2, r3
30003ae0:	e5813000 	str	r3, [r1]
30003ae4:	e51b1020 	ldr	r1, [fp, #-32]
30003ae8:	e59f302c 	ldr	r3, [pc, #44]	; 30003b1c <.text+0x3b1c>
30003aec:	e51b202c 	ldr	r2, [fp, #-44]
30003af0:	e5933000 	ldr	r3, [r3]
30003af4:	e0823003 	add	r3, r2, r3
30003af8:	e5813000 	str	r3, [r1]
30003afc:	e24bd010 	sub	sp, fp, #16	; 0x10
30003b00:	e89da810 	ldmia	sp, {r4, fp, sp, pc}
30003b04:	300078e0 	andcc	r7, r0, r0, ror #17
30003b08:	30007a3c 	andcc	r7, r0, ip, lsr sl
30003b0c:	30007a40 	andcc	r7, r0, r0, asr #20
30003b10:	30007a48 	andcc	r7, r0, r8, asr #20
30003b14:	30007a34 	andcc	r7, r0, r4, lsr sl
30003b18:	30007a44 	andcc	r7, r0, r4, asr #20
30003b1c:	30007a30 	andcc	r7, r0, r0, lsr sl

30003b20 <register_lcd>:
30003b20:	e1a0c00d 	mov	ip, sp
30003b24:	e92dd800 	stmdb	sp!, {fp, ip, lr, pc}
30003b28:	e24cb004 	sub	fp, ip, #4	; 0x4
30003b2c:	e24dd00c 	sub	sp, sp, #12	; 0xc
30003b30:	e50b0010 	str	r0, [fp, #-16]
30003b34:	e3a03000 	mov	r3, #0	; 0x0
30003b38:	e50b3014 	str	r3, [fp, #-20]
30003b3c:	e51b3014 	ldr	r3, [fp, #-20]
30003b40:	e3530009 	cmp	r3, #9	; 0x9
30003b44:	ca00000f 	bgt	30003b88 <register_lcd+0x68>
30003b48:	e59f304c 	ldr	r3, [pc, #76]	; 30003b9c <.text+0x3b9c>
30003b4c:	e51b2014 	ldr	r2, [fp, #-20]
30003b50:	e7933102 	ldr	r3, [r3, r2, lsl #2]
30003b54:	e3530000 	cmp	r3, #0	; 0x0
30003b58:	1a000006 	bne	30003b78 <register_lcd+0x58>
30003b5c:	e59f1038 	ldr	r1, [pc, #56]	; 30003b9c <.text+0x3b9c>
30003b60:	e51b2014 	ldr	r2, [fp, #-20]
30003b64:	e51b3010 	ldr	r3, [fp, #-16]
30003b68:	e7813102 	str	r3, [r1, r2, lsl #2]
30003b6c:	e51b3014 	ldr	r3, [fp, #-20]
30003b70:	e50b3018 	str	r3, [fp, #-24]
30003b74:	ea000005 	b	30003b90 <register_lcd+0x70>
30003b78:	e51b3014 	ldr	r3, [fp, #-20]
30003b7c:	e2833001 	add	r3, r3, #1	; 0x1
30003b80:	e50b3014 	str	r3, [fp, #-20]
30003b84:	eaffffec 	b	30003b3c <register_lcd+0x1c>
30003b88:	e3e03000 	mvn	r3, #0	; 0x0
30003b8c:	e50b3018 	str	r3, [fp, #-24]
30003b90:	e51b0018 	ldr	r0, [fp, #-24]
30003b94:	e24bd00c 	sub	sp, fp, #12	; 0xc
30003b98:	e89da800 	ldmia	sp, {fp, sp, pc}
30003b9c:	300078e4 	andcc	r7, r0, r4, ror #17

30003ba0 <select_lcd>:
30003ba0:	e1a0c00d 	mov	ip, sp
30003ba4:	e92dd800 	stmdb	sp!, {fp, ip, lr, pc}
30003ba8:	e24cb004 	sub	fp, ip, #4	; 0x4
30003bac:	e24dd00c 	sub	sp, sp, #12	; 0xc
30003bb0:	e50b0010 	str	r0, [fp, #-16]
30003bb4:	e3a03000 	mov	r3, #0	; 0x0
30003bb8:	e50b3014 	str	r3, [fp, #-20]
30003bbc:	e51b3014 	ldr	r3, [fp, #-20]
30003bc0:	e3530009 	cmp	r3, #9	; 0x9
30003bc4:	ca000019 	bgt	30003c30 <select_lcd+0x90>
30003bc8:	e59f3074 	ldr	r3, [pc, #116]	; 30003c44 <.text+0x3c44>
30003bcc:	e51b2014 	ldr	r2, [fp, #-20]
30003bd0:	e7933102 	ldr	r3, [r3, r2, lsl #2]
30003bd4:	e3530000 	cmp	r3, #0	; 0x0
30003bd8:	0a000010 	beq	30003c20 <select_lcd+0x80>
30003bdc:	e59f2060 	ldr	r2, [pc, #96]	; 30003c44 <.text+0x3c44>
30003be0:	e51b3014 	ldr	r3, [fp, #-20]
30003be4:	e7923103 	ldr	r3, [r2, r3, lsl #2]
30003be8:	e5930000 	ldr	r0, [r3]
30003bec:	e51b1010 	ldr	r1, [fp, #-16]
30003bf0:	ebfff5b1 	bl	300012bc <strcmp>
30003bf4:	e1a03000 	mov	r3, r0
30003bf8:	e3530000 	cmp	r3, #0	; 0x0
30003bfc:	1a000007 	bne	30003c20 <select_lcd+0x80>
30003c00:	e59f1040 	ldr	r1, [pc, #64]	; 30003c48 <.text+0x3c48>
30003c04:	e59f2038 	ldr	r2, [pc, #56]	; 30003c44 <.text+0x3c44>
30003c08:	e51b3014 	ldr	r3, [fp, #-20]
30003c0c:	e7923103 	ldr	r3, [r2, r3, lsl #2]
30003c10:	e5813000 	str	r3, [r1]
30003c14:	e51b3014 	ldr	r3, [fp, #-20]
30003c18:	e50b3018 	str	r3, [fp, #-24]
30003c1c:	ea000005 	b	30003c38 <select_lcd+0x98>
30003c20:	e51b3014 	ldr	r3, [fp, #-20]
30003c24:	e2833001 	add	r3, r3, #1	; 0x1
30003c28:	e50b3014 	str	r3, [fp, #-20]
30003c2c:	eaffffe2 	b	30003bbc <select_lcd+0x1c>
30003c30:	e3e03000 	mvn	r3, #0	; 0x0
30003c34:	e50b3018 	str	r3, [fp, #-24]
30003c38:	e51b0018 	ldr	r0, [fp, #-24]
30003c3c:	e24bd00c 	sub	sp, fp, #12	; 0xc
30003c40:	e89da800 	ldmia	sp, {fp, sp, pc}
30003c44:	300078e4 	andcc	r7, r0, r4, ror #17
30003c48:	3000790c 	andcc	r7, r0, ip, lsl #18

30003c4c <get_lcd_params>:
30003c4c:	e1a0c00d 	mov	ip, sp
30003c50:	e92dd800 	stmdb	sp!, {fp, ip, lr, pc}
30003c54:	e24cb004 	sub	fp, ip, #4	; 0x4
30003c58:	e24dd010 	sub	sp, sp, #16	; 0x10
30003c5c:	e50b0010 	str	r0, [fp, #-16]
30003c60:	e50b1014 	str	r1, [fp, #-20]
30003c64:	e50b2018 	str	r2, [fp, #-24]
30003c68:	e50b301c 	str	r3, [fp, #-28]
30003c6c:	e51b2010 	ldr	r2, [fp, #-16]
30003c70:	e59f304c 	ldr	r3, [pc, #76]	; 30003cc4 <.text+0x3cc4>
30003c74:	e5933000 	ldr	r3, [r3]
30003c78:	e5933044 	ldr	r3, [r3, #68]
30003c7c:	e5823000 	str	r3, [r2]
30003c80:	e51b2014 	ldr	r2, [fp, #-20]
30003c84:	e59f3038 	ldr	r3, [pc, #56]	; 30003cc4 <.text+0x3cc4>
30003c88:	e5933000 	ldr	r3, [r3]
30003c8c:	e5933038 	ldr	r3, [r3, #56]
30003c90:	e5823000 	str	r3, [r2]
30003c94:	e51b2018 	ldr	r2, [fp, #-24]
30003c98:	e59f3024 	ldr	r3, [pc, #36]	; 30003cc4 <.text+0x3cc4>
30003c9c:	e5933000 	ldr	r3, [r3]
30003ca0:	e593303c 	ldr	r3, [r3, #60]
30003ca4:	e5823000 	str	r3, [r2]
30003ca8:	e51b201c 	ldr	r2, [fp, #-28]
30003cac:	e59f3010 	ldr	r3, [pc, #16]	; 30003cc4 <.text+0x3cc4>
30003cb0:	e5933000 	ldr	r3, [r3]
30003cb4:	e5933040 	ldr	r3, [r3, #64]
30003cb8:	e5823000 	str	r3, [r2]
30003cbc:	e24bd00c 	sub	sp, fp, #12	; 0xc
30003cc0:	e89da800 	ldmia	sp, {fp, sp, pc}
30003cc4:	3000790c 	andcc	r7, r0, ip, lsl #18

30003cc8 <lcd_enable>:
30003cc8:	e1a0c00d 	mov	ip, sp
30003ccc:	e92dd800 	stmdb	sp!, {fp, ip, lr, pc}
30003cd0:	e24cb004 	sub	fp, ip, #4	; 0x4
30003cd4:	ebfffe35 	bl	300035b0 <lcd_controller_enable>
30003cd8:	e89da800 	ldmia	sp, {fp, sp, pc}

30003cdc <lcd_disable>:
30003cdc:	e1a0c00d 	mov	ip, sp
30003ce0:	e92dd800 	stmdb	sp!, {fp, ip, lr, pc}
30003ce4:	e24cb004 	sub	fp, ip, #4	; 0x4
30003ce8:	ebfffe3e 	bl	300035e8 <lcd_controller_disable>
30003cec:	e89da800 	ldmia	sp, {fp, sp, pc}

30003cf0 <lcd_init>:
30003cf0:	e1a0c00d 	mov	ip, sp
30003cf4:	e92dd800 	stmdb	sp!, {fp, ip, lr, pc}
30003cf8:	e24cb004 	sub	fp, ip, #4	; 0x4
30003cfc:	ebfffe4c 	bl	30003634 <lcd_4_3_add>
30003d00:	ebfffe46 	bl	30003620 <lcd_contoller_add>
30003d04:	e59f001c 	ldr	r0, [pc, #28]	; 30003d28 <.text+0x3d28>
30003d08:	ebffffa4 	bl	30003ba0 <select_lcd>
30003d0c:	e59f0018 	ldr	r0, [pc, #24]	; 30003d2c <.text+0x3d2c>
30003d10:	ebfffde3 	bl	300034a4 <select_lcd_controller>
30003d14:	e59f3014 	ldr	r3, [pc, #20]	; 30003d30 <.text+0x3d30>
30003d18:	e5930000 	ldr	r0, [r3]
30003d1c:	ebfffe0b 	bl	30003550 <lcd_controller_init>
30003d20:	e1a00003 	mov	r0, r3
30003d24:	e89da800 	ldmia	sp, {fp, sp, pc}
30003d28:	30006448 	andcc	r6, r0, r8, asr #8
30003d2c:	30006450 	andcc	r6, r0, r0, asr r4
30003d30:	3000790c 	andcc	r7, r0, ip, lsl #18

30003d34 <uart0_config>:
30003d34:	e1a0c00d 	mov	ip, sp
30003d38:	e92dd800 	stmdb	sp!, {fp, ip, lr, pc}
30003d3c:	e24cb004 	sub	fp, ip, #4	; 0x4
30003d40:	e3a00456 	mov	r0, #1442840576	; 0x56000000
30003d44:	e2800070 	add	r0, r0, #112	; 0x70
30003d48:	e3a010f0 	mov	r1, #240	; 0xf0
30003d4c:	e3a020a0 	mov	r2, #160	; 0xa0
30003d50:	eb0005d2 	bl	300054a0 <gpio_set>
30003d54:	e3a00456 	mov	r0, #1442840576	; 0x56000000
30003d58:	e2800078 	add	r0, r0, #120	; 0x78
30003d5c:	e3a0100c 	mov	r1, #12	; 0xc
30003d60:	e3a02000 	mov	r2, #0	; 0x0
30003d64:	eb0005cd 	bl	300054a0 <gpio_set>
30003d68:	e3a02245 	mov	r2, #1342177284	; 0x50000004
30003d6c:	e3a03005 	mov	r3, #5	; 0x5
30003d70:	e5823000 	str	r3, [r2]
30003d74:	e3a03205 	mov	r3, #1342177280	; 0x50000000
30003d78:	e2833028 	add	r3, r3, #40	; 0x28
30003d7c:	e3a0201a 	mov	r2, #26	; 0x1a
30003d80:	e5832000 	str	r2, [r3]
30003d84:	e3a02205 	mov	r2, #1342177280	; 0x50000000
30003d88:	e3a03003 	mov	r3, #3	; 0x3
30003d8c:	e5823000 	str	r3, [r2]
30003d90:	e89da800 	ldmia	sp, {fp, sp, pc}

30003d94 <putchar>:
30003d94:	e1a0c00d 	mov	ip, sp
30003d98:	e92dd800 	stmdb	sp!, {fp, ip, lr, pc}
30003d9c:	e24cb004 	sub	fp, ip, #4	; 0x4
30003da0:	e24dd004 	sub	sp, sp, #4	; 0x4
30003da4:	e50b0010 	str	r0, [fp, #-16]
30003da8:	e3a00205 	mov	r0, #1342177280	; 0x50000000
30003dac:	e2800010 	add	r0, r0, #16	; 0x10
30003db0:	e3a01002 	mov	r1, #2	; 0x2
30003db4:	eb000009 	bl	30003de0 <get_gpio>
30003db8:	e1a03000 	mov	r3, r0
30003dbc:	e3530000 	cmp	r3, #0	; 0x0
30003dc0:	1a000000 	bne	30003dc8 <putchar+0x34>
30003dc4:	eafffff7 	b	30003da8 <putchar+0x14>
30003dc8:	e3a03205 	mov	r3, #1342177280	; 0x50000000
30003dcc:	e2833020 	add	r3, r3, #32	; 0x20
30003dd0:	e51b2010 	ldr	r2, [fp, #-16]
30003dd4:	e5832000 	str	r2, [r3]
30003dd8:	e1a00003 	mov	r0, r3
30003ddc:	e89da808 	ldmia	sp, {r3, fp, sp, pc}

30003de0 <get_gpio>:
30003de0:	e1a0c00d 	mov	ip, sp
30003de4:	e92dd800 	stmdb	sp!, {fp, ip, lr, pc}
30003de8:	e24cb004 	sub	fp, ip, #4	; 0x4
30003dec:	e24dd008 	sub	sp, sp, #8	; 0x8
30003df0:	e50b0010 	str	r0, [fp, #-16]
30003df4:	e50b1014 	str	r1, [fp, #-20]
30003df8:	e51b3010 	ldr	r3, [fp, #-16]
30003dfc:	e5932000 	ldr	r2, [r3]
30003e00:	e51b3014 	ldr	r3, [fp, #-20]
30003e04:	e1a03332 	mov	r3, r2, lsr r3
30003e08:	e2033001 	and	r3, r3, #1	; 0x1
30003e0c:	e1a00003 	mov	r0, r3
30003e10:	e24bd00c 	sub	sp, fp, #12	; 0xc
30003e14:	e89da800 	ldmia	sp, {fp, sp, pc}

30003e18 <getchar>:
30003e18:	e1a0c00d 	mov	ip, sp
30003e1c:	e92dd800 	stmdb	sp!, {fp, ip, lr, pc}
30003e20:	e24cb004 	sub	fp, ip, #4	; 0x4
30003e24:	e3a00205 	mov	r0, #1342177280	; 0x50000000
30003e28:	e2800010 	add	r0, r0, #16	; 0x10
30003e2c:	e3a01000 	mov	r1, #0	; 0x0
30003e30:	ebffffea 	bl	30003de0 <get_gpio>
30003e34:	e1a03000 	mov	r3, r0
30003e38:	e3530000 	cmp	r3, #0	; 0x0
30003e3c:	1a000000 	bne	30003e44 <getchar+0x2c>
30003e40:	eafffff7 	b	30003e24 <getchar+0xc>
30003e44:	e3a03205 	mov	r3, #1342177280	; 0x50000000
30003e48:	e2833024 	add	r3, r3, #36	; 0x24
30003e4c:	e5933000 	ldr	r3, [r3]
30003e50:	e1a00003 	mov	r0, r3
30003e54:	e89da800 	ldmia	sp, {fp, sp, pc}

30003e58 <getchar_nowaiting>:
30003e58:	e1a0c00d 	mov	ip, sp
30003e5c:	e92dd800 	stmdb	sp!, {fp, ip, lr, pc}
30003e60:	e24cb004 	sub	fp, ip, #4	; 0x4
30003e64:	e24dd004 	sub	sp, sp, #4	; 0x4
30003e68:	e3a00205 	mov	r0, #1342177280	; 0x50000000
30003e6c:	e2800010 	add	r0, r0, #16	; 0x10
30003e70:	e3a01000 	mov	r1, #0	; 0x0
30003e74:	ebffffd9 	bl	30003de0 <get_gpio>
30003e78:	e1a03000 	mov	r3, r0
30003e7c:	e3530000 	cmp	r3, #0	; 0x0
30003e80:	1a000002 	bne	30003e90 <getchar_nowaiting+0x38>
30003e84:	e3e03000 	mvn	r3, #0	; 0x0
30003e88:	e50b3010 	str	r3, [fp, #-16]
30003e8c:	ea000003 	b	30003ea0 <getchar_nowaiting+0x48>
30003e90:	e3a03205 	mov	r3, #1342177280	; 0x50000000
30003e94:	e2833024 	add	r3, r3, #36	; 0x24
30003e98:	e5933000 	ldr	r3, [r3]
30003e9c:	e50b3010 	str	r3, [fp, #-16]
30003ea0:	e51b0010 	ldr	r0, [fp, #-16]
30003ea4:	e89da808 	ldmia	sp, {r3, fp, sp, pc}

30003ea8 <puts>:
30003ea8:	e1a0c00d 	mov	ip, sp
30003eac:	e92dd800 	stmdb	sp!, {fp, ip, lr, pc}
30003eb0:	e24cb004 	sub	fp, ip, #4	; 0x4
30003eb4:	e24dd008 	sub	sp, sp, #8	; 0x8
30003eb8:	e50b0010 	str	r0, [fp, #-16]
30003ebc:	e3a03000 	mov	r3, #0	; 0x0
30003ec0:	e50b3014 	str	r3, [fp, #-20]
30003ec4:	e51b3010 	ldr	r3, [fp, #-16]
30003ec8:	e5d33000 	ldrb	r3, [r3]
30003ecc:	e3530000 	cmp	r3, #0	; 0x0
30003ed0:	0a00000a 	beq	30003f00 <puts+0x58>
30003ed4:	e51b3010 	ldr	r3, [fp, #-16]
30003ed8:	e5d33000 	ldrb	r3, [r3]
30003edc:	e1a00003 	mov	r0, r3
30003ee0:	ebffffab 	bl	30003d94 <putchar>
30003ee4:	e51b3010 	ldr	r3, [fp, #-16]
30003ee8:	e2833001 	add	r3, r3, #1	; 0x1
30003eec:	e50b3010 	str	r3, [fp, #-16]
30003ef0:	e51b3014 	ldr	r3, [fp, #-20]
30003ef4:	e2833001 	add	r3, r3, #1	; 0x1
30003ef8:	e50b3014 	str	r3, [fp, #-20]
30003efc:	eafffff0 	b	30003ec4 <puts+0x1c>
30003f00:	e51b3014 	ldr	r3, [fp, #-20]
30003f04:	e1a00003 	mov	r0, r3
30003f08:	e24bd00c 	sub	sp, fp, #12	; 0xc
30003f0c:	e89da800 	ldmia	sp, {fp, sp, pc}

30003f10 <enter_wait_pen_down_mode>:
30003f10:	e1a0c00d 	mov	ip, sp
30003f14:	e92dd800 	stmdb	sp!, {fp, ip, lr, pc}
30003f18:	e24cb004 	sub	fp, ip, #4	; 0x4
30003f1c:	e3a03316 	mov	r3, #1476395008	; 0x58000000
30003f20:	e2833004 	add	r3, r3, #4	; 0x4
30003f24:	e3a020d3 	mov	r2, #211	; 0xd3
30003f28:	e5832000 	str	r2, [r3]
30003f2c:	e89da800 	ldmia	sp, {fp, sp, pc}

30003f30 <enter_wait_pen_up_mode>:
30003f30:	e1a0c00d 	mov	ip, sp
30003f34:	e92dd800 	stmdb	sp!, {fp, ip, lr, pc}
30003f38:	e24cb004 	sub	fp, ip, #4	; 0x4
30003f3c:	e3a02316 	mov	r2, #1476395008	; 0x58000000
30003f40:	e2822004 	add	r2, r2, #4	; 0x4
30003f44:	e3a03e1d 	mov	r3, #464	; 0x1d0
30003f48:	e2833003 	add	r3, r3, #3	; 0x3
30003f4c:	e5823000 	str	r3, [r2]
30003f50:	e89da800 	ldmia	sp, {fp, sp, pc}

30003f54 <enter_auto_measure_mode>:
30003f54:	e1a0c00d 	mov	ip, sp
30003f58:	e92dd800 	stmdb	sp!, {fp, ip, lr, pc}
30003f5c:	e24cb004 	sub	fp, ip, #4	; 0x4
30003f60:	e3a03316 	mov	r3, #1476395008	; 0x58000000
30003f64:	e2833004 	add	r3, r3, #4	; 0x4
30003f68:	e3a02004 	mov	r2, #4	; 0x4
30003f6c:	e5832000 	str	r2, [r3]
30003f70:	e89da800 	ldmia	sp, {fp, sp, pc}

30003f74 <ts_update_one>:
30003f74:	e1a0c00d 	mov	ip, sp
30003f78:	e92dd800 	stmdb	sp!, {fp, ip, lr, pc}
30003f7c:	e24cb004 	sub	fp, ip, #4	; 0x4
30003f80:	e59f2008 	ldr	r2, [pc, #8]	; 30003f90 <.text+0x3f90>
30003f84:	e3a03001 	mov	r3, #1	; 0x1
30003f88:	e5823000 	str	r3, [r2]
30003f8c:	e89da800 	ldmia	sp, {fp, sp, pc}
30003f90:	30007914 	andcc	r7, r0, r4, lsl r9

30003f94 <ts_update_zero>:
30003f94:	e1a0c00d 	mov	ip, sp
30003f98:	e92dd800 	stmdb	sp!, {fp, ip, lr, pc}
30003f9c:	e24cb004 	sub	fp, ip, #4	; 0x4
30003fa0:	e59f2008 	ldr	r2, [pc, #8]	; 30003fb0 <.text+0x3fb0>
30003fa4:	e3a03000 	mov	r3, #0	; 0x0
30003fa8:	e5823000 	str	r3, [r2]
30003fac:	e89da800 	ldmia	sp, {fp, sp, pc}
30003fb0:	30007914 	andcc	r7, r0, r4, lsl r9

30003fb4 <ts_update_get>:
30003fb4:	e1a0c00d 	mov	ip, sp
30003fb8:	e92dd800 	stmdb	sp!, {fp, ip, lr, pc}
30003fbc:	e24cb004 	sub	fp, ip, #4	; 0x4
30003fc0:	e59f3008 	ldr	r3, [pc, #8]	; 30003fd0 <.text+0x3fd0>
30003fc4:	e5933000 	ldr	r3, [r3]
30003fc8:	e1a00003 	mov	r0, r3
30003fcc:	e89da800 	ldmia	sp, {fp, sp, pc}
30003fd0:	30007914 	andcc	r7, r0, r4, lsl r9

30003fd4 <ts_timer_enable>:
30003fd4:	e1a0c00d 	mov	ip, sp
30003fd8:	e92dd800 	stmdb	sp!, {fp, ip, lr, pc}
30003fdc:	e24cb004 	sub	fp, ip, #4	; 0x4
30003fe0:	e59f301c 	ldr	r3, [pc, #28]	; 30004004 <.text+0x4004>
30003fe4:	e5933000 	ldr	r3, [r3]
30003fe8:	e3530000 	cmp	r3, #0	; 0x0
30003fec:	1a000000 	bne	30003ff4 <ts_timer_enable+0x20>
30003ff0:	ebffffdf 	bl	30003f74 <ts_update_one>
30003ff4:	e59f2008 	ldr	r2, [pc, #8]	; 30004004 <.text+0x4004>
30003ff8:	e3a03001 	mov	r3, #1	; 0x1
30003ffc:	e5823000 	str	r3, [r2]
30004000:	e89da800 	ldmia	sp, {fp, sp, pc}
30004004:	30007910 	andcc	r7, r0, r0, lsl r9

30004008 <ts_timer_disable>:
30004008:	e1a0c00d 	mov	ip, sp
3000400c:	e92dd800 	stmdb	sp!, {fp, ip, lr, pc}
30004010:	e24cb004 	sub	fp, ip, #4	; 0x4
30004014:	e59f2008 	ldr	r2, [pc, #8]	; 30004024 <.text+0x4024>
30004018:	e3a03000 	mov	r3, #0	; 0x0
3000401c:	e5823000 	str	r3, [r2]
30004020:	e89da800 	ldmia	sp, {fp, sp, pc}
30004024:	30007910 	andcc	r7, r0, r0, lsl r9

30004028 <get_status_of_ts_timer>:
30004028:	e1a0c00d 	mov	ip, sp
3000402c:	e92dd800 	stmdb	sp!, {fp, ip, lr, pc}
30004030:	e24cb004 	sub	fp, ip, #4	; 0x4
30004034:	e59f3008 	ldr	r3, [pc, #8]	; 30004044 <.text+0x4044>
30004038:	e5933000 	ldr	r3, [r3]
3000403c:	e1a00003 	mov	r0, r3
30004040:	e89da800 	ldmia	sp, {fp, sp, pc}
30004044:	30007910 	andcc	r7, r0, r0, lsl r9

30004048 <Isr_Tc>:
30004048:	e1a0c00d 	mov	ip, sp
3000404c:	e92dd800 	stmdb	sp!, {fp, ip, lr, pc}
30004050:	e24cb004 	sub	fp, ip, #4	; 0x4
30004054:	e3a03316 	mov	r3, #1476395008	; 0x58000000
30004058:	e283300c 	add	r3, r3, #12	; 0xc
3000405c:	e5933000 	ldr	r3, [r3]
30004060:	e2033902 	and	r3, r3, #32768	; 0x8000
30004064:	e3530000 	cmp	r3, #0	; 0x0
30004068:	0a000001 	beq	30004074 <Isr_Tc+0x2c>
3000406c:	ebffffa7 	bl	30003f10 <enter_wait_pen_down_mode>
30004070:	ea000005 	b	3000408c <Isr_Tc+0x44>
30004074:	ebffffad 	bl	30003f30 <enter_wait_pen_up_mode>
30004078:	e3a02316 	mov	r2, #1476395008	; 0x58000000
3000407c:	e3a03316 	mov	r3, #1476395008	; 0x58000000
30004080:	e5933000 	ldr	r3, [r3]
30004084:	e3833001 	orr	r3, r3, #1	; 0x1
30004088:	e5823000 	str	r3, [r2]
3000408c:	e89da800 	ldmia	sp, {fp, sp, pc}

30004090 <update_lcd_xy>:
30004090:	e1a0c00d 	mov	ip, sp
30004094:	e92dd800 	stmdb	sp!, {fp, ip, lr, pc}
30004098:	e24cb004 	sub	fp, ip, #4	; 0x4
3000409c:	e24dd008 	sub	sp, sp, #8	; 0x8
300040a0:	e50b0010 	str	r0, [fp, #-16]
300040a4:	e50b1014 	str	r1, [fp, #-20]
300040a8:	e59f0054 	ldr	r0, [pc, #84]	; 30004104 <.text+0x4104>
300040ac:	e51b1010 	ldr	r1, [fp, #-16]
300040b0:	e51b2014 	ldr	r2, [fp, #-20]
300040b4:	ebfff5d3 	bl	30001808 <printf>
300040b8:	ebffffbd 	bl	30003fb4 <ts_update_get>
300040bc:	e1a03000 	mov	r3, r0
300040c0:	e3530000 	cmp	r3, #0	; 0x0
300040c4:	0a000003 	beq	300040d8 <update_lcd_xy+0x48>
300040c8:	e59f0038 	ldr	r0, [pc, #56]	; 30004108 <.text+0x4108>
300040cc:	ebfff5cd 	bl	30001808 <printf>
300040d0:	ebffffaf 	bl	30003f94 <ts_update_zero>
300040d4:	ea000008 	b	300040fc <update_lcd_xy+0x6c>
300040d8:	e59f202c 	ldr	r2, [pc, #44]	; 3000410c <.text+0x410c>
300040dc:	e51b3010 	ldr	r3, [fp, #-16]
300040e0:	e5823000 	str	r3, [r2]
300040e4:	e59f2024 	ldr	r2, [pc, #36]	; 30004110 <.text+0x4110>
300040e8:	e51b3014 	ldr	r3, [fp, #-20]
300040ec:	e5823000 	str	r3, [r2]
300040f0:	e59f201c 	ldr	r2, [pc, #28]	; 30004114 <.text+0x4114>
300040f4:	e3a03001 	mov	r3, #1	; 0x1
300040f8:	e5823000 	str	r3, [r2]
300040fc:	e24bd00c 	sub	sp, fp, #12	; 0xc
30004100:	e89da800 	ldmia	sp, {fp, sp, pc}
30004104:	30007458 	andcc	r7, r0, r8, asr r4
30004108:	30007470 	andcc	r7, r0, r0, ror r4
3000410c:	30007918 	andcc	r7, r0, r8, lsl r9
30004110:	3000791c 	andcc	r7, r0, ip, lsl r9
30004114:	30007920 	andcc	r7, r0, r0, lsr #18

30004118 <get_xy>:
30004118:	e1a0c00d 	mov	ip, sp
3000411c:	e92dd800 	stmdb	sp!, {fp, ip, lr, pc}
30004120:	e24cb004 	sub	fp, ip, #4	; 0x4
30004124:	e24dd008 	sub	sp, sp, #8	; 0x8
30004128:	e50b0010 	str	r0, [fp, #-16]
3000412c:	e50b1014 	str	r1, [fp, #-20]
30004130:	e51b2010 	ldr	r2, [fp, #-16]
30004134:	e59f301c 	ldr	r3, [pc, #28]	; 30004158 <.text+0x4158>
30004138:	e5933000 	ldr	r3, [r3]
3000413c:	e5823000 	str	r3, [r2]
30004140:	e51b2014 	ldr	r2, [fp, #-20]
30004144:	e59f3010 	ldr	r3, [pc, #16]	; 3000415c <.text+0x415c>
30004148:	e5933000 	ldr	r3, [r3]
3000414c:	e5823000 	str	r3, [r2]
30004150:	e24bd00c 	sub	sp, fp, #12	; 0xc
30004154:	e89da800 	ldmia	sp, {fp, sp, pc}
30004158:	30007918 	andcc	r7, r0, r8, lsl r9
3000415c:	3000791c 	andcc	r7, r0, ip, lsl r9

30004160 <get_first_contact_xy>:
30004160:	e1a0c00d 	mov	ip, sp
30004164:	e92dd800 	stmdb	sp!, {fp, ip, lr, pc}
30004168:	e24cb004 	sub	fp, ip, #4	; 0x4
3000416c:	e24dd008 	sub	sp, sp, #8	; 0x8
30004170:	e50b0010 	str	r0, [fp, #-16]
30004174:	e50b1014 	str	r1, [fp, #-20]
30004178:	ebffffaa 	bl	30004028 <get_status_of_ts_timer>
3000417c:	e1a03000 	mov	r3, r0
30004180:	e3530000 	cmp	r3, #0	; 0x0
30004184:	0a000000 	beq	3000418c <get_first_contact_xy+0x2c>
30004188:	eafffffa 	b	30004178 <get_first_contact_xy+0x18>
3000418c:	e59f20bc 	ldr	r2, [pc, #188]	; 30004250 <.text+0x4250>
30004190:	e3a03000 	mov	r3, #0	; 0x0
30004194:	e5823000 	str	r3, [r2]
30004198:	ebffffa2 	bl	30004028 <get_status_of_ts_timer>
3000419c:	e1a03000 	mov	r3, r0
300041a0:	e3530000 	cmp	r3, #0	; 0x0
300041a4:	1a000004 	bne	300041bc <get_first_contact_xy+0x5c>
300041a8:	e59f30a0 	ldr	r3, [pc, #160]	; 30004250 <.text+0x4250>
300041ac:	e5933000 	ldr	r3, [r3]
300041b0:	e3530000 	cmp	r3, #0	; 0x0
300041b4:	1a000000 	bne	300041bc <get_first_contact_xy+0x5c>
300041b8:	eafffff6 	b	30004198 <get_first_contact_xy+0x38>
300041bc:	e59f208c 	ldr	r2, [pc, #140]	; 30004250 <.text+0x4250>
300041c0:	e3a03000 	mov	r3, #0	; 0x0
300041c4:	e5823000 	str	r3, [r2]
300041c8:	e59f3080 	ldr	r3, [pc, #128]	; 30004250 <.text+0x4250>
300041cc:	e5933000 	ldr	r3, [r3]
300041d0:	e3530000 	cmp	r3, #0	; 0x0
300041d4:	1a000000 	bne	300041dc <get_first_contact_xy+0x7c>
300041d8:	eafffffa 	b	300041c8 <get_first_contact_xy+0x68>
300041dc:	e59f206c 	ldr	r2, [pc, #108]	; 30004250 <.text+0x4250>
300041e0:	e3a03000 	mov	r3, #0	; 0x0
300041e4:	e5823000 	str	r3, [r2]
300041e8:	e59f3060 	ldr	r3, [pc, #96]	; 30004250 <.text+0x4250>
300041ec:	e5933000 	ldr	r3, [r3]
300041f0:	e3530000 	cmp	r3, #0	; 0x0
300041f4:	1a000000 	bne	300041fc <get_first_contact_xy+0x9c>
300041f8:	eafffffa 	b	300041e8 <get_first_contact_xy+0x88>
300041fc:	e51b2010 	ldr	r2, [fp, #-16]
30004200:	e59f304c 	ldr	r3, [pc, #76]	; 30004254 <.text+0x4254>
30004204:	e5933000 	ldr	r3, [r3]
30004208:	e5823000 	str	r3, [r2]
3000420c:	e51b2014 	ldr	r2, [fp, #-20]
30004210:	e59f3040 	ldr	r3, [pc, #64]	; 30004258 <.text+0x4258>
30004214:	e5933000 	ldr	r3, [r3]
30004218:	e5823000 	str	r3, [r2]
3000421c:	e59f3030 	ldr	r3, [pc, #48]	; 30004254 <.text+0x4254>
30004220:	e59f2030 	ldr	r2, [pc, #48]	; 30004258 <.text+0x4258>
30004224:	e59f0030 	ldr	r0, [pc, #48]	; 3000425c <.text+0x425c>
30004228:	e5931000 	ldr	r1, [r3]
3000422c:	e5922000 	ldr	r2, [r2]
30004230:	ebfff574 	bl	30001808 <printf>
30004234:	ebffff7b 	bl	30004028 <get_status_of_ts_timer>
30004238:	e1a03000 	mov	r3, r0
3000423c:	e3530001 	cmp	r3, #1	; 0x1
30004240:	1a000000 	bne	30004248 <get_first_contact_xy+0xe8>
30004244:	eafffffa 	b	30004234 <get_first_contact_xy+0xd4>
30004248:	e24bd00c 	sub	sp, fp, #12	; 0xc
3000424c:	e89da800 	ldmia	sp, {fp, sp, pc}
30004250:	30007920 	andcc	r7, r0, r0, lsr #18
30004254:	30007918 	andcc	r7, r0, r8, lsl r9
30004258:	3000791c 	andcc	r7, r0, ip, lsl r9
3000425c:	30007494 	mulcc	r0, r4, r4

30004260 <Isr_Adc>:
30004260:	e1a0c00d 	mov	ip, sp
30004264:	e92dd800 	stmdb	sp!, {fp, ip, lr, pc}
30004268:	e24cb004 	sub	fp, ip, #4	; 0x4
3000426c:	e24dd008 	sub	sp, sp, #8	; 0x8
30004270:	e3a03316 	mov	r3, #1476395008	; 0x58000000
30004274:	e283300c 	add	r3, r3, #12	; 0xc
30004278:	e5933000 	ldr	r3, [r3]
3000427c:	e50b3010 	str	r3, [fp, #-16]
30004280:	e3a03316 	mov	r3, #1476395008	; 0x58000000
30004284:	e2833010 	add	r3, r3, #16	; 0x10
30004288:	e5933000 	ldr	r3, [r3]
3000428c:	e50b3014 	str	r3, [fp, #-20]
30004290:	e51b3010 	ldr	r3, [fp, #-16]
30004294:	e2033902 	and	r3, r3, #32768	; 0x8000
30004298:	e3530000 	cmp	r3, #0	; 0x0
3000429c:	1a00000d 	bne	300042d8 <Isr_Adc+0x78>
300042a0:	e51b3010 	ldr	r3, [fp, #-16]
300042a4:	e1a03b03 	mov	r3, r3, lsl #22
300042a8:	e1a03b23 	mov	r3, r3, lsr #22
300042ac:	e50b3010 	str	r3, [fp, #-16]
300042b0:	e51b3014 	ldr	r3, [fp, #-20]
300042b4:	e1a03b03 	mov	r3, r3, lsl #22
300042b8:	e1a03b23 	mov	r3, r3, lsr #22
300042bc:	e50b3014 	str	r3, [fp, #-20]
300042c0:	e51b0010 	ldr	r0, [fp, #-16]
300042c4:	e51b1014 	ldr	r1, [fp, #-20]
300042c8:	ebffff70 	bl	30004090 <update_lcd_xy>
300042cc:	ebffff40 	bl	30003fd4 <ts_timer_enable>
300042d0:	ebffff16 	bl	30003f30 <enter_wait_pen_up_mode>
300042d4:	ea000001 	b	300042e0 <Isr_Adc+0x80>
300042d8:	ebffff4a 	bl	30004008 <ts_timer_disable>
300042dc:	ebffff0b 	bl	30003f10 <enter_wait_pen_down_mode>
300042e0:	e24bd00c 	sub	sp, fp, #12	; 0xc
300042e4:	e89da800 	ldmia	sp, {fp, sp, pc}

300042e8 <AdcTsIntHandle>:
300042e8:	e1a0c00d 	mov	ip, sp
300042ec:	e92dd800 	stmdb	sp!, {fp, ip, lr, pc}
300042f0:	e24cb004 	sub	fp, ip, #4	; 0x4
300042f4:	e3a0344a 	mov	r3, #1241513984	; 0x4a000000
300042f8:	e2833018 	add	r3, r3, #24	; 0x18
300042fc:	e5933000 	ldr	r3, [r3]
30004300:	e2033c02 	and	r3, r3, #512	; 0x200
30004304:	e3530000 	cmp	r3, #0	; 0x0
30004308:	0a000000 	beq	30004310 <AdcTsIntHandle+0x28>
3000430c:	ebffff4d 	bl	30004048 <Isr_Tc>
30004310:	e3a0344a 	mov	r3, #1241513984	; 0x4a000000
30004314:	e2833018 	add	r3, r3, #24	; 0x18
30004318:	e5933000 	ldr	r3, [r3]
3000431c:	e2033b01 	and	r3, r3, #1024	; 0x400
30004320:	e3530000 	cmp	r3, #0	; 0x0
30004324:	0a000000 	beq	3000432c <AdcTsIntHandle+0x44>
30004328:	ebffffcc 	bl	30004260 <Isr_Adc>
3000432c:	e3a0344a 	mov	r3, #1241513984	; 0x4a000000
30004330:	e2833018 	add	r3, r3, #24	; 0x18
30004334:	e3a02c06 	mov	r2, #1536	; 0x600
30004338:	e5832000 	str	r2, [r3]
3000433c:	e89da800 	ldmia	sp, {fp, sp, pc}

30004340 <adc_ts_int_init>:
30004340:	e1a0c00d 	mov	ip, sp
30004344:	e92dd800 	stmdb	sp!, {fp, ip, lr, pc}
30004348:	e24cb004 	sub	fp, ip, #4	; 0x4
3000434c:	e3a0344a 	mov	r3, #1241513984	; 0x4a000000
30004350:	e2833018 	add	r3, r3, #24	; 0x18
30004354:	e3a02c06 	mov	r2, #1536	; 0x600
30004358:	e5832000 	str	r2, [r3]
3000435c:	e3a0001f 	mov	r0, #31	; 0x1f
30004360:	e59f1020 	ldr	r1, [pc, #32]	; 30004388 <.text+0x4388>
30004364:	eb000438 	bl	3000544c <register_irq>
30004368:	e3a0244a 	mov	r2, #1241513984	; 0x4a000000
3000436c:	e282201c 	add	r2, r2, #28	; 0x1c
30004370:	e3a0344a 	mov	r3, #1241513984	; 0x4a000000
30004374:	e283301c 	add	r3, r3, #28	; 0x1c
30004378:	e5933000 	ldr	r3, [r3]
3000437c:	e3c33c06 	bic	r3, r3, #1536	; 0x600
30004380:	e5823000 	str	r3, [r2]
30004384:	e89da800 	ldmia	sp, {fp, sp, pc}
30004388:	300042e8 	andcc	r4, r0, r8, ror #5

3000438c <touchscreen_timer_irq>:
3000438c:	e1a0c00d 	mov	ip, sp
30004390:	e92dd800 	stmdb	sp!, {fp, ip, lr, pc}
30004394:	e24cb004 	sub	fp, ip, #4	; 0x4
30004398:	ebffff22 	bl	30004028 <get_status_of_ts_timer>
3000439c:	e1a03000 	mov	r3, r0
300043a0:	e3530000 	cmp	r3, #0	; 0x0
300043a4:	1a000000 	bne	300043ac <touchscreen_timer_irq+0x20>
300043a8:	ea00000e 	b	300043e8 <touchscreen_timer_irq+0x5c>
300043ac:	e3a03316 	mov	r3, #1476395008	; 0x58000000
300043b0:	e283300c 	add	r3, r3, #12	; 0xc
300043b4:	e5933000 	ldr	r3, [r3]
300043b8:	e2033902 	and	r3, r3, #32768	; 0x8000
300043bc:	e3530000 	cmp	r3, #0	; 0x0
300043c0:	0a000002 	beq	300043d0 <touchscreen_timer_irq+0x44>
300043c4:	ebffff0f 	bl	30004008 <ts_timer_disable>
300043c8:	ebfffed0 	bl	30003f10 <enter_wait_pen_down_mode>
300043cc:	ea000005 	b	300043e8 <touchscreen_timer_irq+0x5c>
300043d0:	ebfffedf 	bl	30003f54 <enter_auto_measure_mode>
300043d4:	e3a02316 	mov	r2, #1476395008	; 0x58000000
300043d8:	e3a03316 	mov	r3, #1476395008	; 0x58000000
300043dc:	e5933000 	ldr	r3, [r3]
300043e0:	e3833001 	orr	r3, r3, #1	; 0x1
300043e4:	e5823000 	str	r3, [r2]
300043e8:	e89da800 	ldmia	sp, {fp, sp, pc}

300043ec <adc_ts_reg_init>:
300043ec:	e1a0c00d 	mov	ip, sp
300043f0:	e92dd800 	stmdb	sp!, {fp, ip, lr, pc}
300043f4:	e24cb004 	sub	fp, ip, #4	; 0x4
300043f8:	e3a02316 	mov	r2, #1476395008	; 0x58000000
300043fc:	e3a03b13 	mov	r3, #19456	; 0x4c00
30004400:	e2833040 	add	r3, r3, #64	; 0x40
30004404:	e5823000 	str	r3, [r2]
30004408:	e3a02316 	mov	r2, #1476395008	; 0x58000000
3000440c:	e2822008 	add	r2, r2, #8	; 0x8
30004410:	e3a03cea 	mov	r3, #59904	; 0xea00
30004414:	e2833060 	add	r3, r3, #96	; 0x60
30004418:	e5823000 	str	r3, [r2]
3000441c:	e89da800 	ldmia	sp, {fp, sp, pc}

30004420 <touchscreen_init>:
30004420:	e1a0c00d 	mov	ip, sp
30004424:	e92dd800 	stmdb	sp!, {fp, ip, lr, pc}
30004428:	e24cb004 	sub	fp, ip, #4	; 0x4
3000442c:	ebffffee 	bl	300043ec <adc_ts_reg_init>
30004430:	ebffffc2 	bl	30004340 <adc_ts_int_init>
30004434:	e3a0000a 	mov	r0, #10	; 0xa
30004438:	e59f1008 	ldr	r1, [pc, #8]	; 30004448 <.text+0x4448>
3000443c:	eb000092 	bl	3000468c <add_list>
30004440:	ebfffeb2 	bl	30003f10 <enter_wait_pen_down_mode>
30004444:	e89da800 	ldmia	sp, {fp, sp, pc}
30004448:	3000438c 	andcc	r4, r0, ip, lsl #7

3000444c <adc_config>:
3000444c:	e1a0c00d 	mov	ip, sp
30004450:	e92dd800 	stmdb	sp!, {fp, ip, lr, pc}
30004454:	e24cb004 	sub	fp, ip, #4	; 0x4
30004458:	e24dd004 	sub	sp, sp, #4	; 0x4
3000445c:	e1a03000 	mov	r3, r0
30004460:	e54b300d 	strb	r3, [fp, #-13]
30004464:	e55b300d 	ldrb	r3, [fp, #-13]
30004468:	e1a03183 	mov	r3, r3, lsl #3
3000446c:	e3833b13 	orr	r3, r3, #19456	; 0x4c00
30004470:	e3833040 	orr	r3, r3, #64	; 0x40
30004474:	e3a00316 	mov	r0, #1476395008	; 0x58000000
30004478:	e3a01cff 	mov	r1, #65280	; 0xff00
3000447c:	e28110ff 	add	r1, r1, #255	; 0xff
30004480:	e1a02003 	mov	r2, r3
30004484:	eb000405 	bl	300054a0 <gpio_set>
30004488:	e3a03316 	mov	r3, #1476395008	; 0x58000000
3000448c:	e2833008 	add	r3, r3, #8	; 0x8
30004490:	e3a020ff 	mov	r2, #255	; 0xff
30004494:	e5832000 	str	r2, [r3]
30004498:	e89da808 	ldmia	sp, {r3, fp, sp, pc}

3000449c <adc_read>:
3000449c:	e1a0c00d 	mov	ip, sp
300044a0:	e92dd800 	stmdb	sp!, {fp, ip, lr, pc}
300044a4:	e24cb004 	sub	fp, ip, #4	; 0x4
300044a8:	e3a02316 	mov	r2, #1476395008	; 0x58000000
300044ac:	e3a03316 	mov	r3, #1476395008	; 0x58000000
300044b0:	e5933000 	ldr	r3, [r3]
300044b4:	e3833001 	orr	r3, r3, #1	; 0x1
300044b8:	e5823000 	str	r3, [r2]
300044bc:	e3a03316 	mov	r3, #1476395008	; 0x58000000
300044c0:	e5933000 	ldr	r3, [r3]
300044c4:	e2033902 	and	r3, r3, #32768	; 0x8000
300044c8:	e3530000 	cmp	r3, #0	; 0x0
300044cc:	1a000000 	bne	300044d4 <adc_read+0x38>
300044d0:	eafffff9 	b	300044bc <adc_read+0x20>
300044d4:	e3a03316 	mov	r3, #1476395008	; 0x58000000
300044d8:	e283300c 	add	r3, r3, #12	; 0xc
300044dc:	e5933000 	ldr	r3, [r3]
300044e0:	e1a03b03 	mov	r3, r3, lsl #22
300044e4:	e1a03b23 	mov	r3, r3, lsr #22
300044e8:	e1a00003 	mov	r0, r3
300044ec:	e89da800 	ldmia	sp, {fp, sp, pc}

300044f0 <led_config>:
300044f0:	e1a0c00d 	mov	ip, sp
300044f4:	e92dd800 	stmdb	sp!, {fp, ip, lr, pc}
300044f8:	e24cb004 	sub	fp, ip, #4	; 0x4
300044fc:	e3a00456 	mov	r0, #1442840576	; 0x56000000
30004500:	e2800050 	add	r0, r0, #80	; 0x50
30004504:	e3a01c3f 	mov	r1, #16128	; 0x3f00
30004508:	e3a02c15 	mov	r2, #5376	; 0x1500
3000450c:	eb0003e3 	bl	300054a0 <gpio_set>
30004510:	e3a00456 	mov	r0, #1442840576	; 0x56000000
30004514:	e2800054 	add	r0, r0, #84	; 0x54
30004518:	e3a01070 	mov	r1, #112	; 0x70
3000451c:	e3a02070 	mov	r2, #112	; 0x70
30004520:	eb0003de 	bl	300054a0 <gpio_set>
30004524:	e89da800 	ldmia	sp, {fp, sp, pc}

30004528 <led1on>:
30004528:	e1a0c00d 	mov	ip, sp
3000452c:	e92dd800 	stmdb	sp!, {fp, ip, lr, pc}
30004530:	e24cb004 	sub	fp, ip, #4	; 0x4
30004534:	e3a00456 	mov	r0, #1442840576	; 0x56000000
30004538:	e2800054 	add	r0, r0, #84	; 0x54
3000453c:	e3a01010 	mov	r1, #16	; 0x10
30004540:	e3a02000 	mov	r2, #0	; 0x0
30004544:	eb0003d5 	bl	300054a0 <gpio_set>
30004548:	e89da800 	ldmia	sp, {fp, sp, pc}

3000454c <led1off>:
3000454c:	e1a0c00d 	mov	ip, sp
30004550:	e92dd800 	stmdb	sp!, {fp, ip, lr, pc}
30004554:	e24cb004 	sub	fp, ip, #4	; 0x4
30004558:	e3a00456 	mov	r0, #1442840576	; 0x56000000
3000455c:	e2800054 	add	r0, r0, #84	; 0x54
30004560:	e3a01010 	mov	r1, #16	; 0x10
30004564:	e3a02010 	mov	r2, #16	; 0x10
30004568:	eb0003cc 	bl	300054a0 <gpio_set>
3000456c:	e89da800 	ldmia	sp, {fp, sp, pc}

30004570 <int_timer1_handle_irq>:
30004570:	e1a0c00d 	mov	ip, sp
30004574:	e92dd800 	stmdb	sp!, {fp, ip, lr, pc}
30004578:	e24cb004 	sub	fp, ip, #4	; 0x4
3000457c:	e24dd004 	sub	sp, sp, #4	; 0x4
30004580:	e59f20ac 	ldr	r2, [pc, #172]	; 30004634 <.text+0x4634>
30004584:	e59f30a8 	ldr	r3, [pc, #168]	; 30004634 <.text+0x4634>
30004588:	e5933000 	ldr	r3, [r3]
3000458c:	e2833001 	add	r3, r3, #1	; 0x1
30004590:	e5823000 	str	r3, [r2]
30004594:	e3a03000 	mov	r3, #0	; 0x0
30004598:	e50b3010 	str	r3, [fp, #-16]
3000459c:	e3a03000 	mov	r3, #0	; 0x0
300045a0:	e50b3010 	str	r3, [fp, #-16]
300045a4:	e51b3010 	ldr	r3, [fp, #-16]
300045a8:	e3530009 	cmp	r3, #9	; 0x9
300045ac:	ca00001f 	bgt	30004630 <int_timer1_handle_irq+0xc0>
300045b0:	e59f2080 	ldr	r2, [pc, #128]	; 30004638 <.text+0x4638>
300045b4:	e51b3010 	ldr	r3, [fp, #-16]
300045b8:	e3a01004 	mov	r1, #4	; 0x4
300045bc:	e1a03183 	mov	r3, r3, lsl #3
300045c0:	e0833002 	add	r3, r3, r2
300045c4:	e0833001 	add	r3, r3, r1
300045c8:	e5933000 	ldr	r3, [r3]
300045cc:	e3530000 	cmp	r3, #0	; 0x0
300045d0:	0a000012 	beq	30004620 <int_timer1_handle_irq+0xb0>
300045d4:	e59f3058 	ldr	r3, [pc, #88]	; 30004634 <.text+0x4634>
300045d8:	e59f1058 	ldr	r1, [pc, #88]	; 30004638 <.text+0x4638>
300045dc:	e51b2010 	ldr	r2, [fp, #-16]
300045e0:	e5933000 	ldr	r3, [r3]
300045e4:	e1a00003 	mov	r0, r3
300045e8:	e7911182 	ldr	r1, [r1, r2, lsl #3]
300045ec:	eb00044e 	bl	3000572c <__umodsi3>
300045f0:	e1a03000 	mov	r3, r0
300045f4:	e3530000 	cmp	r3, #0	; 0x0
300045f8:	1a000008 	bne	30004620 <int_timer1_handle_irq+0xb0>
300045fc:	e59f2034 	ldr	r2, [pc, #52]	; 30004638 <.text+0x4638>
30004600:	e51b3010 	ldr	r3, [fp, #-16]
30004604:	e3a01004 	mov	r1, #4	; 0x4
30004608:	e1a03183 	mov	r3, r3, lsl #3
3000460c:	e0833002 	add	r3, r3, r2
30004610:	e0833001 	add	r3, r3, r1
30004614:	e5933000 	ldr	r3, [r3]
30004618:	e1a0e00f 	mov	lr, pc
3000461c:	e1a0f003 	mov	pc, r3
30004620:	e51b3010 	ldr	r3, [fp, #-16]
30004624:	e2833001 	add	r3, r3, #1	; 0x1
30004628:	e50b3010 	str	r3, [fp, #-16]
3000462c:	eaffffdc 	b	300045a4 <int_timer1_handle_irq+0x34>
30004630:	e89da808 	ldmia	sp, {r3, fp, sp, pc}
30004634:	30007924 	andcc	r7, r0, r4, lsr #18
30004638:	30007928 	andcc	r7, r0, r8, lsr #18

3000463c <int_timer0_handle_irq>:
3000463c:	e1a0c00d 	mov	ip, sp
30004640:	e92dd800 	stmdb	sp!, {fp, ip, lr, pc}
30004644:	e24cb004 	sub	fp, ip, #4	; 0x4
30004648:	e59f3038 	ldr	r3, [pc, #56]	; 30004688 <.text+0x4688>
3000464c:	e5933000 	ldr	r3, [r3]
30004650:	e1a03283 	mov	r3, r3, lsl #5
30004654:	e3a00456 	mov	r0, #1442840576	; 0x56000000
30004658:	e2800054 	add	r0, r0, #84	; 0x54
3000465c:	e3a01020 	mov	r1, #32	; 0x20
30004660:	e1a02003 	mov	r2, r3
30004664:	eb00038d 	bl	300054a0 <gpio_set>
30004668:	e59f2018 	ldr	r2, [pc, #24]	; 30004688 <.text+0x4688>
3000466c:	e59f3014 	ldr	r3, [pc, #20]	; 30004688 <.text+0x4688>
30004670:	e5933000 	ldr	r3, [r3]
30004674:	e3530000 	cmp	r3, #0	; 0x0
30004678:	13a03000 	movne	r3, #0	; 0x0
3000467c:	03a03001 	moveq	r3, #1	; 0x1
30004680:	e5823000 	str	r3, [r2]
30004684:	e89da800 	ldmia	sp, {fp, sp, pc}
30004688:	3000797c 	andcc	r7, r0, ip, ror r9

3000468c <add_list>:
3000468c:	e1a0c00d 	mov	ip, sp
30004690:	e92dd800 	stmdb	sp!, {fp, ip, lr, pc}
30004694:	e24cb004 	sub	fp, ip, #4	; 0x4
30004698:	e24dd00c 	sub	sp, sp, #12	; 0xc
3000469c:	e50b0010 	str	r0, [fp, #-16]
300046a0:	e50b1014 	str	r1, [fp, #-20]
300046a4:	e3a03000 	mov	r3, #0	; 0x0
300046a8:	e50b3018 	str	r3, [fp, #-24]
300046ac:	e3a03000 	mov	r3, #0	; 0x0
300046b0:	e50b3018 	str	r3, [fp, #-24]
300046b4:	e51b3018 	ldr	r3, [fp, #-24]
300046b8:	e3530009 	cmp	r3, #9	; 0x9
300046bc:	ca000019 	bgt	30004728 <add_list+0x9c>
300046c0:	e59f2068 	ldr	r2, [pc, #104]	; 30004730 <.text+0x4730>
300046c4:	e51b3018 	ldr	r3, [fp, #-24]
300046c8:	e3a01004 	mov	r1, #4	; 0x4
300046cc:	e1a03183 	mov	r3, r3, lsl #3
300046d0:	e0833002 	add	r3, r3, r2
300046d4:	e0833001 	add	r3, r3, r1
300046d8:	e5933000 	ldr	r3, [r3]
300046dc:	e3530000 	cmp	r3, #0	; 0x0
300046e0:	1a00000c 	bne	30004718 <add_list+0x8c>
300046e4:	e59f2044 	ldr	r2, [pc, #68]	; 30004730 <.text+0x4730>
300046e8:	e51b3018 	ldr	r3, [fp, #-24]
300046ec:	e3a01004 	mov	r1, #4	; 0x4
300046f0:	e1a03183 	mov	r3, r3, lsl #3
300046f4:	e0833002 	add	r3, r3, r2
300046f8:	e0832001 	add	r2, r3, r1
300046fc:	e51b3014 	ldr	r3, [fp, #-20]
30004700:	e5823000 	str	r3, [r2]
30004704:	e59f1024 	ldr	r1, [pc, #36]	; 30004730 <.text+0x4730>
30004708:	e51b2018 	ldr	r2, [fp, #-24]
3000470c:	e51b3010 	ldr	r3, [fp, #-16]
30004710:	e7813182 	str	r3, [r1, r2, lsl #3]
30004714:	ea000003 	b	30004728 <add_list+0x9c>
30004718:	e51b3018 	ldr	r3, [fp, #-24]
3000471c:	e2833001 	add	r3, r3, #1	; 0x1
30004720:	e50b3018 	str	r3, [fp, #-24]
30004724:	eaffffe2 	b	300046b4 <add_list+0x28>
30004728:	e24bd00c 	sub	sp, fp, #12	; 0xc
3000472c:	e89da800 	ldmia	sp, {fp, sp, pc}
30004730:	30007928 	andcc	r7, r0, r8, lsr #18

30004734 <timer0_config>:
30004734:	e1a0c00d 	mov	ip, sp
30004738:	e92dd800 	stmdb	sp!, {fp, ip, lr, pc}
3000473c:	e24cb004 	sub	fp, ip, #4	; 0x4
30004740:	e59f3080 	ldr	r3, [pc, #128]	; 300047c8 <.text+0x47c8>
30004744:	e5933000 	ldr	r3, [r3]
30004748:	e3530000 	cmp	r3, #0	; 0x0
3000474c:	1a000000 	bne	30004754 <timer0_config+0x20>
30004750:	eb00001e 	bl	300047d0 <clk_init>
30004754:	e3a00451 	mov	r0, #1358954496	; 0x51000000
30004758:	e2800004 	add	r0, r0, #4	; 0x4
3000475c:	e3a0100f 	mov	r1, #15	; 0xf
30004760:	e3a02003 	mov	r2, #3	; 0x3
30004764:	eb00034d 	bl	300054a0 <gpio_set>
30004768:	e3a02451 	mov	r2, #1358954496	; 0x51000000
3000476c:	e282200c 	add	r2, r2, #12	; 0xc
30004770:	e3a03c3d 	mov	r3, #15616	; 0x3d00
30004774:	e2833009 	add	r3, r3, #9	; 0x9
30004778:	e5823000 	str	r3, [r2]
3000477c:	e3a00451 	mov	r0, #1358954496	; 0x51000000
30004780:	e2800008 	add	r0, r0, #8	; 0x8
30004784:	e3a01002 	mov	r1, #2	; 0x2
30004788:	e3a02002 	mov	r2, #2	; 0x2
3000478c:	eb000343 	bl	300054a0 <gpio_set>
30004790:	e3a00451 	mov	r0, #1358954496	; 0x51000000
30004794:	e2800008 	add	r0, r0, #8	; 0x8
30004798:	e3a0101f 	mov	r1, #31	; 0x1f
3000479c:	e3a02009 	mov	r2, #9	; 0x9
300047a0:	eb00033e 	bl	300054a0 <gpio_set>
300047a4:	e3a0000a 	mov	r0, #10	; 0xa
300047a8:	e59f101c 	ldr	r1, [pc, #28]	; 300047cc <.text+0x47cc>
300047ac:	eb000326 	bl	3000544c <register_irq>
300047b0:	e3a0044a 	mov	r0, #1241513984	; 0x4a000000
300047b4:	e2800008 	add	r0, r0, #8	; 0x8
300047b8:	e3a01b01 	mov	r1, #1024	; 0x400
300047bc:	e3a02000 	mov	r2, #0	; 0x0
300047c0:	eb000336 	bl	300054a0 <gpio_set>
300047c4:	e89da800 	ldmia	sp, {fp, sp, pc}
300047c8:	30007978 	andcc	r7, r0, r8, ror r9
300047cc:	3000463c 	andcc	r4, r0, ip, lsr r6

300047d0 <clk_init>:
300047d0:	e1a0c00d 	mov	ip, sp
300047d4:	e92dd800 	stmdb	sp!, {fp, ip, lr, pc}
300047d8:	e24cb004 	sub	fp, ip, #4	; 0x4
300047dc:	e3a03451 	mov	r3, #1358954496	; 0x51000000
300047e0:	e3a02063 	mov	r2, #99	; 0x63
300047e4:	e5832000 	str	r2, [r3]
300047e8:	e1a00003 	mov	r0, r3
300047ec:	e89da800 	ldmia	sp, {fp, sp, pc}

300047f0 <timer1_config>:
300047f0:	e1a0c00d 	mov	ip, sp
300047f4:	e92dd800 	stmdb	sp!, {fp, ip, lr, pc}
300047f8:	e24cb004 	sub	fp, ip, #4	; 0x4
300047fc:	e59f307c 	ldr	r3, [pc, #124]	; 30004880 <.text+0x4880>
30004800:	e5933000 	ldr	r3, [r3]
30004804:	e3530000 	cmp	r3, #0	; 0x0
30004808:	1a000000 	bne	30004810 <timer1_config+0x20>
3000480c:	ebffffef 	bl	300047d0 <clk_init>
30004810:	e3a00451 	mov	r0, #1358954496	; 0x51000000
30004814:	e2800004 	add	r0, r0, #4	; 0x4
30004818:	e3a01000 	mov	r1, #0	; 0x0
3000481c:	e3a02000 	mov	r2, #0	; 0x0
30004820:	eb00031e 	bl	300054a0 <gpio_set>
30004824:	e3a03451 	mov	r3, #1358954496	; 0x51000000
30004828:	e2833018 	add	r3, r3, #24	; 0x18
3000482c:	e3a020fa 	mov	r2, #250	; 0xfa
30004830:	e5832000 	str	r2, [r3]
30004834:	e3a00451 	mov	r0, #1358954496	; 0x51000000
30004838:	e2800008 	add	r0, r0, #8	; 0x8
3000483c:	e3a01c02 	mov	r1, #512	; 0x200
30004840:	e3a02c02 	mov	r2, #512	; 0x200
30004844:	eb000315 	bl	300054a0 <gpio_set>
30004848:	e3a00451 	mov	r0, #1358954496	; 0x51000000
3000484c:	e2800008 	add	r0, r0, #8	; 0x8
30004850:	e3a01c0f 	mov	r1, #3840	; 0xf00
30004854:	e3a02c09 	mov	r2, #2304	; 0x900
30004858:	eb000310 	bl	300054a0 <gpio_set>
3000485c:	e3a0000b 	mov	r0, #11	; 0xb
30004860:	e59f101c 	ldr	r1, [pc, #28]	; 30004884 <.text+0x4884>
30004864:	eb0002f8 	bl	3000544c <register_irq>
30004868:	e3a0044a 	mov	r0, #1241513984	; 0x4a000000
3000486c:	e2800008 	add	r0, r0, #8	; 0x8
30004870:	e3a01b02 	mov	r1, #2048	; 0x800
30004874:	e3a02000 	mov	r2, #0	; 0x0
30004878:	eb000308 	bl	300054a0 <gpio_set>
3000487c:	e89da800 	ldmia	sp, {fp, sp, pc}
30004880:	30007978 	andcc	r7, r0, r8, ror r9
30004884:	30004570 	andcc	r4, r0, r0, ror r5

30004888 <delay>:
30004888:	e1a0c00d 	mov	ip, sp
3000488c:	e92dd800 	stmdb	sp!, {fp, ip, lr, pc}
30004890:	e24cb004 	sub	fp, ip, #4	; 0x4
30004894:	e24dd008 	sub	sp, sp, #8	; 0x8
30004898:	e50b0010 	str	r0, [fp, #-16]
3000489c:	e59f302c 	ldr	r3, [pc, #44]	; 300048d0 <.text+0x48d0>
300048a0:	e5932000 	ldr	r2, [r3]
300048a4:	e51b3010 	ldr	r3, [fp, #-16]
300048a8:	e0823003 	add	r3, r2, r3
300048ac:	e50b3014 	str	r3, [fp, #-20]
300048b0:	e59f3018 	ldr	r3, [pc, #24]	; 300048d0 <.text+0x48d0>
300048b4:	e5932000 	ldr	r2, [r3]
300048b8:	e51b3014 	ldr	r3, [fp, #-20]
300048bc:	e1520003 	cmp	r2, r3
300048c0:	2a000000 	bcs	300048c8 <delay+0x40>
300048c4:	eafffff9 	b	300048b0 <delay+0x28>
300048c8:	e24bd00c 	sub	sp, fp, #12	; 0xc
300048cc:	e89da800 	ldmia	sp, {fp, sp, pc}
300048d0:	30007924 	andcc	r7, r0, r4, lsr #18

300048d4 <nor_write_word>:
300048d4:	e1a0c00d 	mov	ip, sp
300048d8:	e92dd800 	stmdb	sp!, {fp, ip, lr, pc}
300048dc:	e24cb004 	sub	fp, ip, #4	; 0x4
300048e0:	e24dd010 	sub	sp, sp, #16	; 0x10
300048e4:	e50b0010 	str	r0, [fp, #-16]
300048e8:	e50b1014 	str	r1, [fp, #-20]
300048ec:	e50b2018 	str	r2, [fp, #-24]
300048f0:	e51b3014 	ldr	r3, [fp, #-20]
300048f4:	e1a02083 	mov	r2, r3, lsl #1
300048f8:	e51b3010 	ldr	r3, [fp, #-16]
300048fc:	e0823003 	add	r3, r2, r3
30004900:	e50b301c 	str	r3, [fp, #-28]
30004904:	e51b201c 	ldr	r2, [fp, #-28]
30004908:	e51b3018 	ldr	r3, [fp, #-24]
3000490c:	e1c230b0 	strh	r3, [r2]
30004910:	e24bd00c 	sub	sp, fp, #12	; 0xc
30004914:	e89da800 	ldmia	sp, {fp, sp, pc}

30004918 <nor_cmd>:
30004918:	e1a0c00d 	mov	ip, sp
3000491c:	e92dd800 	stmdb	sp!, {fp, ip, lr, pc}
30004920:	e24cb004 	sub	fp, ip, #4	; 0x4
30004924:	e24dd008 	sub	sp, sp, #8	; 0x8
30004928:	e50b0010 	str	r0, [fp, #-16]
3000492c:	e50b1014 	str	r1, [fp, #-20]
30004930:	e3a00000 	mov	r0, #0	; 0x0
30004934:	e51b1010 	ldr	r1, [fp, #-16]
30004938:	e51b2014 	ldr	r2, [fp, #-20]
3000493c:	ebffffe4 	bl	300048d4 <nor_write_word>
30004940:	e24bd00c 	sub	sp, fp, #12	; 0xc
30004944:	e89da800 	ldmia	sp, {fp, sp, pc}

30004948 <nor_read_word>:
30004948:	e1a0c00d 	mov	ip, sp
3000494c:	e92dd800 	stmdb	sp!, {fp, ip, lr, pc}
30004950:	e24cb004 	sub	fp, ip, #4	; 0x4
30004954:	e24dd00c 	sub	sp, sp, #12	; 0xc
30004958:	e50b0010 	str	r0, [fp, #-16]
3000495c:	e50b1014 	str	r1, [fp, #-20]
30004960:	e51b3014 	ldr	r3, [fp, #-20]
30004964:	e1a02083 	mov	r2, r3, lsl #1
30004968:	e51b3010 	ldr	r3, [fp, #-16]
3000496c:	e0823003 	add	r3, r2, r3
30004970:	e50b3018 	str	r3, [fp, #-24]
30004974:	e51b3018 	ldr	r3, [fp, #-24]
30004978:	e1d330b0 	ldrh	r3, [r3]
3000497c:	e1a03803 	mov	r3, r3, lsl #16
30004980:	e1a03823 	mov	r3, r3, lsr #16
30004984:	e1a00003 	mov	r0, r3
30004988:	e24bd00c 	sub	sp, fp, #12	; 0xc
3000498c:	e89da800 	ldmia	sp, {fp, sp, pc}

30004990 <nor_dat>:
30004990:	e1a0c00d 	mov	ip, sp
30004994:	e92dd800 	stmdb	sp!, {fp, ip, lr, pc}
30004998:	e24cb004 	sub	fp, ip, #4	; 0x4
3000499c:	e24dd004 	sub	sp, sp, #4	; 0x4
300049a0:	e50b0010 	str	r0, [fp, #-16]
300049a4:	e3a00000 	mov	r0, #0	; 0x0
300049a8:	e51b1010 	ldr	r1, [fp, #-16]
300049ac:	ebffffe5 	bl	30004948 <nor_read_word>
300049b0:	e1a03000 	mov	r3, r0
300049b4:	e1a00003 	mov	r0, r3
300049b8:	e89da808 	ldmia	sp, {r3, fp, sp, pc}

300049bc <wait_ready>:
300049bc:	e1a0c00d 	mov	ip, sp
300049c0:	e92dd800 	stmdb	sp!, {fp, ip, lr, pc}
300049c4:	e24cb004 	sub	fp, ip, #4	; 0x4
300049c8:	e24dd00c 	sub	sp, sp, #12	; 0xc
300049cc:	e50b0010 	str	r0, [fp, #-16]
300049d0:	e51b3010 	ldr	r3, [fp, #-16]
300049d4:	e1a030a3 	mov	r3, r3, lsr #1
300049d8:	e1a00003 	mov	r0, r3
300049dc:	ebffffeb 	bl	30004990 <nor_dat>
300049e0:	e1a03000 	mov	r3, r0
300049e4:	e50b3018 	str	r3, [fp, #-24]
300049e8:	e51b3010 	ldr	r3, [fp, #-16]
300049ec:	e1a030a3 	mov	r3, r3, lsr #1
300049f0:	e1a00003 	mov	r0, r3
300049f4:	ebffffe5 	bl	30004990 <nor_dat>
300049f8:	e1a03000 	mov	r3, r0
300049fc:	e50b3014 	str	r3, [fp, #-20]
30004a00:	e51b3014 	ldr	r3, [fp, #-20]
30004a04:	e2032040 	and	r2, r3, #64	; 0x40
30004a08:	e51b3018 	ldr	r3, [fp, #-24]
30004a0c:	e2033040 	and	r3, r3, #64	; 0x40
30004a10:	e1520003 	cmp	r2, r3
30004a14:	0a000008 	beq	30004a3c <wait_ready+0x80>
30004a18:	e51b3014 	ldr	r3, [fp, #-20]
30004a1c:	e50b3018 	str	r3, [fp, #-24]
30004a20:	e51b3010 	ldr	r3, [fp, #-16]
30004a24:	e1a030a3 	mov	r3, r3, lsr #1
30004a28:	e1a00003 	mov	r0, r3
30004a2c:	ebffffd7 	bl	30004990 <nor_dat>
30004a30:	e1a03000 	mov	r3, r0
30004a34:	e50b3014 	str	r3, [fp, #-20]
30004a38:	eafffff0 	b	30004a00 <wait_ready+0x44>
30004a3c:	e24bd00c 	sub	sp, fp, #12	; 0xc
30004a40:	e89da800 	ldmia	sp, {fp, sp, pc}

30004a44 <do_scan_nor_flash>:
30004a44:	e1a0c00d 	mov	ip, sp
30004a48:	e92dd810 	stmdb	sp!, {r4, fp, ip, lr, pc}
30004a4c:	e24cb004 	sub	fp, ip, #4	; 0x4
30004a50:	e24dd034 	sub	sp, sp, #52	; 0x34
30004a54:	e3a00e55 	mov	r0, #1360	; 0x550
30004a58:	e2800005 	add	r0, r0, #5	; 0x5
30004a5c:	e3a010aa 	mov	r1, #170	; 0xaa
30004a60:	ebffffac 	bl	30004918 <nor_cmd>
30004a64:	e3a00faa 	mov	r0, #680	; 0x2a8
30004a68:	e2800002 	add	r0, r0, #2	; 0x2
30004a6c:	e3a01055 	mov	r1, #85	; 0x55
30004a70:	ebffffa8 	bl	30004918 <nor_cmd>
30004a74:	e3a00e55 	mov	r0, #1360	; 0x550
30004a78:	e2800005 	add	r0, r0, #5	; 0x5
30004a7c:	e3a01090 	mov	r1, #144	; 0x90
30004a80:	ebffffa4 	bl	30004918 <nor_cmd>
30004a84:	e3a00000 	mov	r0, #0	; 0x0
30004a88:	ebffffc0 	bl	30004990 <nor_dat>
30004a8c:	e50b003c 	str	r0, [fp, #-60]
30004a90:	e3a00001 	mov	r0, #1	; 0x1
30004a94:	ebffffbd 	bl	30004990 <nor_dat>
30004a98:	e50b0040 	str	r0, [fp, #-64]
30004a9c:	e3a00000 	mov	r0, #0	; 0x0
30004aa0:	e3a010f0 	mov	r1, #240	; 0xf0
30004aa4:	ebffff9b 	bl	30004918 <nor_cmd>
30004aa8:	e3a00055 	mov	r0, #85	; 0x55
30004aac:	e3a01098 	mov	r1, #152	; 0x98
30004ab0:	ebffff98 	bl	30004918 <nor_cmd>
30004ab4:	e3a00010 	mov	r0, #16	; 0x10
30004ab8:	ebffffb4 	bl	30004990 <nor_dat>
30004abc:	e1a03000 	mov	r3, r0
30004ac0:	e54b3014 	strb	r3, [fp, #-20]
30004ac4:	e3a00011 	mov	r0, #17	; 0x11
30004ac8:	ebffffb0 	bl	30004990 <nor_dat>
30004acc:	e1a03000 	mov	r3, r0
30004ad0:	e54b3013 	strb	r3, [fp, #-19]
30004ad4:	e3a00012 	mov	r0, #18	; 0x12
30004ad8:	ebffffac 	bl	30004990 <nor_dat>
30004adc:	e1a03000 	mov	r3, r0
30004ae0:	e54b3012 	strb	r3, [fp, #-18]
30004ae4:	e3a03000 	mov	r3, #0	; 0x0
30004ae8:	e54b3011 	strb	r3, [fp, #-17]
30004aec:	e24b3014 	sub	r3, fp, #20	; 0x14
30004af0:	e59f01ac 	ldr	r0, [pc, #428]	; 30004ca4 <.text+0x4ca4>
30004af4:	e1a01003 	mov	r1, r3
30004af8:	ebfff342 	bl	30001808 <printf>
30004afc:	e3a00027 	mov	r0, #39	; 0x27
30004b00:	ebffffa2 	bl	30004990 <nor_dat>
30004b04:	e1a02000 	mov	r2, r0
30004b08:	e3a03001 	mov	r3, #1	; 0x1
30004b0c:	e1a03213 	mov	r3, r3, lsl r2
30004b10:	e50b3018 	str	r3, [fp, #-24]
30004b14:	e51b3018 	ldr	r3, [fp, #-24]
30004b18:	e1a03a23 	mov	r3, r3, lsr #20
30004b1c:	e58d3000 	str	r3, [sp]
30004b20:	e59f0180 	ldr	r0, [pc, #384]	; 30004ca8 <.text+0x4ca8>
30004b24:	e51b103c 	ldr	r1, [fp, #-60]
30004b28:	e51b2040 	ldr	r2, [fp, #-64]
30004b2c:	e51b3018 	ldr	r3, [fp, #-24]
30004b30:	ebfff334 	bl	30001808 <printf>
30004b34:	e3a0002c 	mov	r0, #44	; 0x2c
30004b38:	ebffff94 	bl	30004990 <nor_dat>
30004b3c:	e50b001c 	str	r0, [fp, #-28]
30004b40:	e3a0302d 	mov	r3, #45	; 0x2d
30004b44:	e50b3024 	str	r3, [fp, #-36]
30004b48:	e3a03000 	mov	r3, #0	; 0x0
30004b4c:	e50b3028 	str	r3, [fp, #-40]
30004b50:	e59f0154 	ldr	r0, [pc, #340]	; 30004cac <.text+0x4cac>
30004b54:	ebfff32b 	bl	30001808 <printf>
30004b58:	e3a03000 	mov	r3, #0	; 0x0
30004b5c:	e50b3038 	str	r3, [fp, #-56]
30004b60:	e3a03000 	mov	r3, #0	; 0x0
30004b64:	e50b3020 	str	r3, [fp, #-32]
30004b68:	e51b2020 	ldr	r2, [fp, #-32]
30004b6c:	e51b301c 	ldr	r3, [fp, #-28]
30004b70:	e1520003 	cmp	r2, r3
30004b74:	aa000043 	bge	30004c88 <do_scan_nor_flash+0x244>
30004b78:	e51b0024 	ldr	r0, [fp, #-36]
30004b7c:	ebffff83 	bl	30004990 <nor_dat>
30004b80:	e1a04000 	mov	r4, r0
30004b84:	e51b3024 	ldr	r3, [fp, #-36]
30004b88:	e2833001 	add	r3, r3, #1	; 0x1
30004b8c:	e1a00003 	mov	r0, r3
30004b90:	ebffff7e 	bl	30004990 <nor_dat>
30004b94:	e1a03000 	mov	r3, r0
30004b98:	e1a03403 	mov	r3, r3, lsl #8
30004b9c:	e0843003 	add	r3, r4, r3
30004ba0:	e2833001 	add	r3, r3, #1	; 0x1
30004ba4:	e50b302c 	str	r3, [fp, #-44]
30004ba8:	e51b3024 	ldr	r3, [fp, #-36]
30004bac:	e2833002 	add	r3, r3, #2	; 0x2
30004bb0:	e1a00003 	mov	r0, r3
30004bb4:	ebffff75 	bl	30004990 <nor_dat>
30004bb8:	e1a04000 	mov	r4, r0
30004bbc:	e51b3024 	ldr	r3, [fp, #-36]
30004bc0:	e2833003 	add	r3, r3, #3	; 0x3
30004bc4:	e1a00003 	mov	r0, r3
30004bc8:	ebffff70 	bl	30004990 <nor_dat>
30004bcc:	e1a03000 	mov	r3, r0
30004bd0:	e1a03403 	mov	r3, r3, lsl #8
30004bd4:	e0843003 	add	r3, r4, r3
30004bd8:	e1a03403 	mov	r3, r3, lsl #8
30004bdc:	e50b3030 	str	r3, [fp, #-48]
30004be0:	e51b3024 	ldr	r3, [fp, #-36]
30004be4:	e2833004 	add	r3, r3, #4	; 0x4
30004be8:	e50b3024 	str	r3, [fp, #-36]
30004bec:	e3a03000 	mov	r3, #0	; 0x0
30004bf0:	e50b3034 	str	r3, [fp, #-52]
30004bf4:	e51b2034 	ldr	r2, [fp, #-52]
30004bf8:	e51b302c 	ldr	r3, [fp, #-44]
30004bfc:	e1520003 	cmp	r2, r3
30004c00:	aa00001c 	bge	30004c78 <do_scan_nor_flash+0x234>
30004c04:	e51b0028 	ldr	r0, [fp, #-40]
30004c08:	eb00019f 	bl	3000528c <printfhex>
30004c0c:	e3a00020 	mov	r0, #32	; 0x20
30004c10:	ebfffc5f 	bl	30003d94 <putchar>
30004c14:	e51b3038 	ldr	r3, [fp, #-56]
30004c18:	e2833001 	add	r3, r3, #1	; 0x1
30004c1c:	e50b3038 	str	r3, [fp, #-56]
30004c20:	e51b2028 	ldr	r2, [fp, #-40]
30004c24:	e51b3030 	ldr	r3, [fp, #-48]
30004c28:	e0823003 	add	r3, r2, r3
30004c2c:	e50b3028 	str	r3, [fp, #-40]
30004c30:	e51b1038 	ldr	r1, [fp, #-56]
30004c34:	e59f3074 	ldr	r3, [pc, #116]	; 30004cb0 <.text+0x4cb0>
30004c38:	e0c32391 	smull	r2, r3, r1, r3
30004c3c:	e1a020c3 	mov	r2, r3, asr #1
30004c40:	e1a03fc1 	mov	r3, r1, asr #31
30004c44:	e0632002 	rsb	r2, r3, r2
30004c48:	e1a03002 	mov	r3, r2
30004c4c:	e1a03103 	mov	r3, r3, lsl #2
30004c50:	e0833002 	add	r3, r3, r2
30004c54:	e0633001 	rsb	r3, r3, r1
30004c58:	e3530000 	cmp	r3, #0	; 0x0
30004c5c:	1a000001 	bne	30004c68 <do_scan_nor_flash+0x224>
30004c60:	e59f004c 	ldr	r0, [pc, #76]	; 30004cb4 <.text+0x4cb4>
30004c64:	ebfff2e7 	bl	30001808 <printf>
30004c68:	e51b3034 	ldr	r3, [fp, #-52]
30004c6c:	e2833001 	add	r3, r3, #1	; 0x1
30004c70:	e50b3034 	str	r3, [fp, #-52]
30004c74:	eaffffde 	b	30004bf4 <do_scan_nor_flash+0x1b0>
30004c78:	e51b3020 	ldr	r3, [fp, #-32]
30004c7c:	e2833001 	add	r3, r3, #1	; 0x1
30004c80:	e50b3020 	str	r3, [fp, #-32]
30004c84:	eaffffb7 	b	30004b68 <do_scan_nor_flash+0x124>
30004c88:	e59f0024 	ldr	r0, [pc, #36]	; 30004cb4 <.text+0x4cb4>
30004c8c:	ebfff2dd 	bl	30001808 <printf>
30004c90:	e3a00000 	mov	r0, #0	; 0x0
30004c94:	e3a010f0 	mov	r1, #240	; 0xf0
30004c98:	ebffff1e 	bl	30004918 <nor_cmd>
30004c9c:	e24bd010 	sub	sp, fp, #16	; 0x10
30004ca0:	e89da810 	ldmia	sp, {r4, fp, sp, pc}
30004ca4:	300074b8 	strcch	r7, [r0], -r8
30004ca8:	300074c4 	andcc	r7, r0, r4, asr #9
30004cac:	30007500 	andcc	r7, r0, r0, lsl #10
30004cb0:	66666667 	strvsbt	r6, [r6], -r7, ror #12
30004cb4:	30007520 	andcc	r7, r0, r0, lsr #10

30004cb8 <do_erase_nor_flash>:
30004cb8:	e1a0c00d 	mov	ip, sp
30004cbc:	e92dd800 	stmdb	sp!, {fp, ip, lr, pc}
30004cc0:	e24cb004 	sub	fp, ip, #4	; 0x4
30004cc4:	e24dd004 	sub	sp, sp, #4	; 0x4
30004cc8:	e59f0080 	ldr	r0, [pc, #128]	; 30004d50 <.text+0x4d50>
30004ccc:	ebfff2cd 	bl	30001808 <printf>
30004cd0:	ebfff169 	bl	3000127c <get_uint>
30004cd4:	e50b0010 	str	r0, [fp, #-16]
30004cd8:	e59f0074 	ldr	r0, [pc, #116]	; 30004d54 <.text+0x4d54>
30004cdc:	ebfff2c9 	bl	30001808 <printf>
30004ce0:	e3a00e55 	mov	r0, #1360	; 0x550
30004ce4:	e2800005 	add	r0, r0, #5	; 0x5
30004ce8:	e3a010aa 	mov	r1, #170	; 0xaa
30004cec:	ebffff09 	bl	30004918 <nor_cmd>
30004cf0:	e3a00faa 	mov	r0, #680	; 0x2a8
30004cf4:	e2800002 	add	r0, r0, #2	; 0x2
30004cf8:	e3a01055 	mov	r1, #85	; 0x55
30004cfc:	ebffff05 	bl	30004918 <nor_cmd>
30004d00:	e3a00e55 	mov	r0, #1360	; 0x550
30004d04:	e2800005 	add	r0, r0, #5	; 0x5
30004d08:	e3a01080 	mov	r1, #128	; 0x80
30004d0c:	ebffff01 	bl	30004918 <nor_cmd>
30004d10:	e3a00e55 	mov	r0, #1360	; 0x550
30004d14:	e2800005 	add	r0, r0, #5	; 0x5
30004d18:	e3a010aa 	mov	r1, #170	; 0xaa
30004d1c:	ebfffefd 	bl	30004918 <nor_cmd>
30004d20:	e3a00faa 	mov	r0, #680	; 0x2a8
30004d24:	e2800002 	add	r0, r0, #2	; 0x2
30004d28:	e3a01055 	mov	r1, #85	; 0x55
30004d2c:	ebfffef9 	bl	30004918 <nor_cmd>
30004d30:	e51b3010 	ldr	r3, [fp, #-16]
30004d34:	e1a030a3 	mov	r3, r3, lsr #1
30004d38:	e1a00003 	mov	r0, r3
30004d3c:	e3a01030 	mov	r1, #48	; 0x30
30004d40:	ebfffef4 	bl	30004918 <nor_cmd>
30004d44:	e51b0010 	ldr	r0, [fp, #-16]
30004d48:	ebffff1b 	bl	300049bc <wait_ready>
30004d4c:	e89da808 	ldmia	sp, {r3, fp, sp, pc}
30004d50:	30007524 	andcc	r7, r0, r4, lsr #10
30004d54:	3000754c 	andcc	r7, r0, ip, asr #10

30004d58 <do_write_nor_flash>:
30004d58:	e1a0c00d 	mov	ip, sp
30004d5c:	e92dd800 	stmdb	sp!, {fp, ip, lr, pc}
30004d60:	e24cb004 	sub	fp, ip, #4	; 0x4
30004d64:	e24dd074 	sub	sp, sp, #116	; 0x74
30004d68:	e59f0194 	ldr	r0, [pc, #404]	; 30004f04 <.text+0x4f04>
30004d6c:	ebfff2a5 	bl	30001808 <printf>
30004d70:	ebfff141 	bl	3000127c <get_uint>
30004d74:	e50b0010 	str	r0, [fp, #-16]
30004d78:	e59f0188 	ldr	r0, [pc, #392]	; 30004f08 <.text+0x4f08>
30004d7c:	ebfff2a1 	bl	30001808 <printf>
30004d80:	e24b3074 	sub	r3, fp, #116	; 0x74
30004d84:	e1a00003 	mov	r0, r3
30004d88:	ebfff0f8 	bl	30001170 <gets>
30004d8c:	e59f0178 	ldr	r0, [pc, #376]	; 30004f0c <.text+0x4f0c>
30004d90:	ebfff29c 	bl	30001808 <printf>
30004d94:	e3a03000 	mov	r3, #0	; 0x0
30004d98:	e50b3078 	str	r3, [fp, #-120]
30004d9c:	e3a03001 	mov	r3, #1	; 0x1
30004da0:	e50b307c 	str	r3, [fp, #-124]
30004da4:	e3e02067 	mvn	r2, #103	; 0x67
30004da8:	e51b3078 	ldr	r3, [fp, #-120]
30004dac:	e24b000c 	sub	r0, fp, #12	; 0xc
30004db0:	e0803003 	add	r3, r0, r3
30004db4:	e0833002 	add	r3, r3, r2
30004db8:	e5d33000 	ldrb	r3, [r3]
30004dbc:	e3530000 	cmp	r3, #0	; 0x0
30004dc0:	0a000033 	beq	30004e94 <do_write_nor_flash+0x13c>
30004dc4:	e3e02067 	mvn	r2, #103	; 0x67
30004dc8:	e51b307c 	ldr	r3, [fp, #-124]
30004dcc:	e24b100c 	sub	r1, fp, #12	; 0xc
30004dd0:	e0813003 	add	r3, r1, r3
30004dd4:	e0833002 	add	r3, r3, r2
30004dd8:	e5d33000 	ldrb	r3, [r3]
30004ddc:	e3530000 	cmp	r3, #0	; 0x0
30004de0:	0a00002b 	beq	30004e94 <do_write_nor_flash+0x13c>
30004de4:	e3e02067 	mvn	r2, #103	; 0x67
30004de8:	e51b3078 	ldr	r3, [fp, #-120]
30004dec:	e24b000c 	sub	r0, fp, #12	; 0xc
30004df0:	e0803003 	add	r3, r0, r3
30004df4:	e0833002 	add	r3, r3, r2
30004df8:	e5d31000 	ldrb	r1, [r3]
30004dfc:	e3e02067 	mvn	r2, #103	; 0x67
30004e00:	e51b307c 	ldr	r3, [fp, #-124]
30004e04:	e24b000c 	sub	r0, fp, #12	; 0xc
30004e08:	e0803003 	add	r3, r0, r3
30004e0c:	e0833002 	add	r3, r3, r2
30004e10:	e5d33000 	ldrb	r3, [r3]
30004e14:	e1a03403 	mov	r3, r3, lsl #8
30004e18:	e0813003 	add	r3, r1, r3
30004e1c:	e50b3080 	str	r3, [fp, #-128]
30004e20:	e3a00e55 	mov	r0, #1360	; 0x550
30004e24:	e2800005 	add	r0, r0, #5	; 0x5
30004e28:	e3a010aa 	mov	r1, #170	; 0xaa
30004e2c:	ebfffeb9 	bl	30004918 <nor_cmd>
30004e30:	e3a00faa 	mov	r0, #680	; 0x2a8
30004e34:	e2800002 	add	r0, r0, #2	; 0x2
30004e38:	e3a01055 	mov	r1, #85	; 0x55
30004e3c:	ebfffeb5 	bl	30004918 <nor_cmd>
30004e40:	e3a00e55 	mov	r0, #1360	; 0x550
30004e44:	e2800005 	add	r0, r0, #5	; 0x5
30004e48:	e3a010a0 	mov	r1, #160	; 0xa0
30004e4c:	ebfffeb1 	bl	30004918 <nor_cmd>
30004e50:	e51b3010 	ldr	r3, [fp, #-16]
30004e54:	e1a030a3 	mov	r3, r3, lsr #1
30004e58:	e1a00003 	mov	r0, r3
30004e5c:	e51b1080 	ldr	r1, [fp, #-128]
30004e60:	ebfffeac 	bl	30004918 <nor_cmd>
30004e64:	e51b0010 	ldr	r0, [fp, #-16]
30004e68:	ebfffed3 	bl	300049bc <wait_ready>
30004e6c:	e51b3078 	ldr	r3, [fp, #-120]
30004e70:	e2833002 	add	r3, r3, #2	; 0x2
30004e74:	e50b3078 	str	r3, [fp, #-120]
30004e78:	e51b307c 	ldr	r3, [fp, #-124]
30004e7c:	e2833002 	add	r3, r3, #2	; 0x2
30004e80:	e50b307c 	str	r3, [fp, #-124]
30004e84:	e51b3010 	ldr	r3, [fp, #-16]
30004e88:	e2833002 	add	r3, r3, #2	; 0x2
30004e8c:	e50b3010 	str	r3, [fp, #-16]
30004e90:	eaffffc3 	b	30004da4 <do_write_nor_flash+0x4c>
30004e94:	e3e02067 	mvn	r2, #103	; 0x67
30004e98:	e51b3078 	ldr	r3, [fp, #-120]
30004e9c:	e24b100c 	sub	r1, fp, #12	; 0xc
30004ea0:	e0813003 	add	r3, r1, r3
30004ea4:	e0833002 	add	r3, r3, r2
30004ea8:	e5d33000 	ldrb	r3, [r3]
30004eac:	e50b3080 	str	r3, [fp, #-128]
30004eb0:	e3a00e55 	mov	r0, #1360	; 0x550
30004eb4:	e2800005 	add	r0, r0, #5	; 0x5
30004eb8:	e3a010aa 	mov	r1, #170	; 0xaa
30004ebc:	ebfffe95 	bl	30004918 <nor_cmd>
30004ec0:	e3a00faa 	mov	r0, #680	; 0x2a8
30004ec4:	e2800002 	add	r0, r0, #2	; 0x2
30004ec8:	e3a01055 	mov	r1, #85	; 0x55
30004ecc:	ebfffe91 	bl	30004918 <nor_cmd>
30004ed0:	e3a00e55 	mov	r0, #1360	; 0x550
30004ed4:	e2800005 	add	r0, r0, #5	; 0x5
30004ed8:	e3a010a0 	mov	r1, #160	; 0xa0
30004edc:	ebfffe8d 	bl	30004918 <nor_cmd>
30004ee0:	e51b3010 	ldr	r3, [fp, #-16]
30004ee4:	e1a030a3 	mov	r3, r3, lsr #1
30004ee8:	e1a00003 	mov	r0, r3
30004eec:	e51b1080 	ldr	r1, [fp, #-128]
30004ef0:	ebfffe88 	bl	30004918 <nor_cmd>
30004ef4:	e51b0010 	ldr	r0, [fp, #-16]
30004ef8:	ebfffeaf 	bl	300049bc <wait_ready>
30004efc:	e24bd00c 	sub	sp, fp, #12	; 0xc
30004f00:	e89da800 	ldmia	sp, {fp, sp, pc}
30004f04:	3000755c 	andcc	r7, r0, ip, asr r5
30004f08:	30007584 	andcc	r7, r0, r4, lsl #11
30004f0c:	300075a0 	andcc	r7, r0, r0, lsr #11

30004f10 <do_read_nor_flash>:
30004f10:	e1a0c00d 	mov	ip, sp
30004f14:	e92dd800 	stmdb	sp!, {fp, ip, lr, pc}
30004f18:	e24cb004 	sub	fp, ip, #4	; 0x4
30004f1c:	e24dd024 	sub	sp, sp, #36	; 0x24
30004f20:	e59f0150 	ldr	r0, [pc, #336]	; 30005078 <.text+0x5078>
30004f24:	ebfff237 	bl	30001808 <printf>
30004f28:	ebfff0d3 	bl	3000127c <get_uint>
30004f2c:	e50b0010 	str	r0, [fp, #-16]
30004f30:	e51b3010 	ldr	r3, [fp, #-16]
30004f34:	e50b3014 	str	r3, [fp, #-20]
30004f38:	e59f013c 	ldr	r0, [pc, #316]	; 3000507c <.text+0x507c>
30004f3c:	ebfff231 	bl	30001808 <printf>
30004f40:	e3a03000 	mov	r3, #0	; 0x0
30004f44:	e50b3018 	str	r3, [fp, #-24]
30004f48:	e51b3018 	ldr	r3, [fp, #-24]
30004f4c:	e3530003 	cmp	r3, #3	; 0x3
30004f50:	ca000046 	bgt	30005070 <do_read_nor_flash+0x160>
30004f54:	e3a03000 	mov	r3, #0	; 0x0
30004f58:	e50b301c 	str	r3, [fp, #-28]
30004f5c:	e51b301c 	ldr	r3, [fp, #-28]
30004f60:	e353000f 	cmp	r3, #15	; 0xf
30004f64:	ca000014 	bgt	30004fbc <do_read_nor_flash+0xac>
30004f68:	e24b2014 	sub	r2, fp, #20	; 0x14
30004f6c:	e5923000 	ldr	r3, [r2]
30004f70:	e5d31000 	ldrb	r1, [r3]
30004f74:	e2833001 	add	r3, r3, #1	; 0x1
30004f78:	e5823000 	str	r3, [r2]
30004f7c:	e54b101d 	strb	r1, [fp, #-29]
30004f80:	e3e02023 	mvn	r2, #35	; 0x23
30004f84:	e51b301c 	ldr	r3, [fp, #-28]
30004f88:	e24b100c 	sub	r1, fp, #12	; 0xc
30004f8c:	e0813003 	add	r3, r1, r3
30004f90:	e0832002 	add	r2, r3, r2
30004f94:	e55b301d 	ldrb	r3, [fp, #-29]
30004f98:	e5c23000 	strb	r3, [r2]
30004f9c:	e55b301d 	ldrb	r3, [fp, #-29]
30004fa0:	e59f00d8 	ldr	r0, [pc, #216]	; 30005080 <.text+0x5080>
30004fa4:	e1a01003 	mov	r1, r3
30004fa8:	ebfff216 	bl	30001808 <printf>
30004fac:	e51b301c 	ldr	r3, [fp, #-28]
30004fb0:	e2833001 	add	r3, r3, #1	; 0x1
30004fb4:	e50b301c 	str	r3, [fp, #-28]
30004fb8:	eaffffe7 	b	30004f5c <do_read_nor_flash+0x4c>
30004fbc:	e59f00c0 	ldr	r0, [pc, #192]	; 30005084 <.text+0x5084>
30004fc0:	ebfff210 	bl	30001808 <printf>
30004fc4:	e3a03000 	mov	r3, #0	; 0x0
30004fc8:	e50b301c 	str	r3, [fp, #-28]
30004fcc:	e51b301c 	ldr	r3, [fp, #-28]
30004fd0:	e353000f 	cmp	r3, #15	; 0xf
30004fd4:	ca00001f 	bgt	30005058 <do_read_nor_flash+0x148>
30004fd8:	e3e02023 	mvn	r2, #35	; 0x23
30004fdc:	e51b301c 	ldr	r3, [fp, #-28]
30004fe0:	e24b100c 	sub	r1, fp, #12	; 0xc
30004fe4:	e0813003 	add	r3, r1, r3
30004fe8:	e0833002 	add	r3, r3, r2
30004fec:	e5d33000 	ldrb	r3, [r3]
30004ff0:	e353001f 	cmp	r3, #31	; 0x1f
30004ff4:	9a000008 	bls	3000501c <do_read_nor_flash+0x10c>
30004ff8:	e3e02023 	mvn	r2, #35	; 0x23
30004ffc:	e51b301c 	ldr	r3, [fp, #-28]
30005000:	e24b100c 	sub	r1, fp, #12	; 0xc
30005004:	e0813003 	add	r3, r1, r3
30005008:	e0833002 	add	r3, r3, r2
3000500c:	e5d33000 	ldrb	r3, [r3]
30005010:	e353007e 	cmp	r3, #126	; 0x7e
30005014:	8a000000 	bhi	3000501c <do_read_nor_flash+0x10c>
30005018:	ea000002 	b	30005028 <do_read_nor_flash+0x118>
3000501c:	e3a0002e 	mov	r0, #46	; 0x2e
30005020:	ebfffb5b 	bl	30003d94 <putchar>
30005024:	ea000007 	b	30005048 <do_read_nor_flash+0x138>
30005028:	e3e02023 	mvn	r2, #35	; 0x23
3000502c:	e51b301c 	ldr	r3, [fp, #-28]
30005030:	e24b100c 	sub	r1, fp, #12	; 0xc
30005034:	e0813003 	add	r3, r1, r3
30005038:	e0833002 	add	r3, r3, r2
3000503c:	e5d33000 	ldrb	r3, [r3]
30005040:	e1a00003 	mov	r0, r3
30005044:	ebfffb52 	bl	30003d94 <putchar>
30005048:	e51b301c 	ldr	r3, [fp, #-28]
3000504c:	e2833001 	add	r3, r3, #1	; 0x1
30005050:	e50b301c 	str	r3, [fp, #-28]
30005054:	eaffffdc 	b	30004fcc <do_read_nor_flash+0xbc>
30005058:	e59f0028 	ldr	r0, [pc, #40]	; 30005088 <.text+0x5088>
3000505c:	ebfff1e9 	bl	30001808 <printf>
30005060:	e51b3018 	ldr	r3, [fp, #-24]
30005064:	e2833001 	add	r3, r3, #1	; 0x1
30005068:	e50b3018 	str	r3, [fp, #-24]
3000506c:	eaffffb5 	b	30004f48 <do_read_nor_flash+0x38>
30005070:	e24bd00c 	sub	sp, fp, #12	; 0xc
30005074:	e89da800 	ldmia	sp, {fp, sp, pc}
30005078:	300075b0 	strcch	r7, [r0], -r0
3000507c:	300075cc 	andcc	r7, r0, ip, asr #11
30005080:	300075d8 	ldrccd	r7, [r0], -r8
30005084:	300075e0 	andcc	r7, r0, r0, ror #11
30005088:	30007520 	andcc	r7, r0, r0, lsr #10

3000508c <nor_flash_test>:
3000508c:	e1a0c00d 	mov	ip, sp
30005090:	e92dd800 	stmdb	sp!, {fp, ip, lr, pc}
30005094:	e24cb004 	sub	fp, ip, #4	; 0x4
30005098:	e24dd004 	sub	sp, sp, #4	; 0x4
3000509c:	e59f0148 	ldr	r0, [pc, #328]	; 300051ec <.text+0x51ec>
300050a0:	ebfff1d8 	bl	30001808 <printf>
300050a4:	e59f0144 	ldr	r0, [pc, #324]	; 300051f0 <.text+0x51f0>
300050a8:	ebfff1d6 	bl	30001808 <printf>
300050ac:	e59f0140 	ldr	r0, [pc, #320]	; 300051f4 <.text+0x51f4>
300050b0:	ebfff1d4 	bl	30001808 <printf>
300050b4:	e59f013c 	ldr	r0, [pc, #316]	; 300051f8 <.text+0x51f8>
300050b8:	ebfff1d2 	bl	30001808 <printf>
300050bc:	e59f0138 	ldr	r0, [pc, #312]	; 300051fc <.text+0x51fc>
300050c0:	ebfff1d0 	bl	30001808 <printf>
300050c4:	e59f0134 	ldr	r0, [pc, #308]	; 30005200 <.text+0x5200>
300050c8:	ebfff1ce 	bl	30001808 <printf>
300050cc:	ebfffb51 	bl	30003e18 <getchar>
300050d0:	e1a03000 	mov	r3, r0
300050d4:	e54b300d 	strb	r3, [fp, #-13]
300050d8:	e55b300d 	ldrb	r3, [fp, #-13]
300050dc:	e59f0120 	ldr	r0, [pc, #288]	; 30005204 <.text+0x5204>
300050e0:	e1a01003 	mov	r1, r3
300050e4:	ebfff1c7 	bl	30001808 <printf>
300050e8:	e55b300d 	ldrb	r3, [fp, #-13]
300050ec:	e2433045 	sub	r3, r3, #69	; 0x45
300050f0:	e3530032 	cmp	r3, #50	; 0x32
300050f4:	979ff103 	ldrls	pc, [pc, r3, lsl #2]
300050f8:	eaffffe7 	b	3000509c <nor_flash_test+0x10>
300050fc:	300051d0 	ldrccd	r5, [r0], -r0
30005100:	3000509c 	mulcc	r0, ip, r0
30005104:	3000509c 	mulcc	r0, ip, r0
30005108:	3000509c 	mulcc	r0, ip, r0
3000510c:	3000509c 	mulcc	r0, ip, r0
30005110:	3000509c 	mulcc	r0, ip, r0
30005114:	3000509c 	mulcc	r0, ip, r0
30005118:	3000509c 	mulcc	r0, ip, r0
3000511c:	3000509c 	mulcc	r0, ip, r0
30005120:	3000509c 	mulcc	r0, ip, r0
30005124:	3000509c 	mulcc	r0, ip, r0
30005128:	3000509c 	mulcc	r0, ip, r0
3000512c:	300051e8 	andcc	r5, r0, r8, ror #3
30005130:	300051e0 	andcc	r5, r0, r0, ror #3
30005134:	300051c8 	andcc	r5, r0, r8, asr #3
30005138:	3000509c 	mulcc	r0, ip, r0
3000513c:	3000509c 	mulcc	r0, ip, r0
30005140:	3000509c 	mulcc	r0, ip, r0
30005144:	300051d8 	ldrccd	r5, [r0], -r8
30005148:	3000509c 	mulcc	r0, ip, r0
3000514c:	3000509c 	mulcc	r0, ip, r0
30005150:	3000509c 	mulcc	r0, ip, r0
30005154:	3000509c 	mulcc	r0, ip, r0
30005158:	3000509c 	mulcc	r0, ip, r0
3000515c:	3000509c 	mulcc	r0, ip, r0
30005160:	3000509c 	mulcc	r0, ip, r0
30005164:	3000509c 	mulcc	r0, ip, r0
30005168:	3000509c 	mulcc	r0, ip, r0
3000516c:	3000509c 	mulcc	r0, ip, r0
30005170:	3000509c 	mulcc	r0, ip, r0
30005174:	3000509c 	mulcc	r0, ip, r0
30005178:	3000509c 	mulcc	r0, ip, r0
3000517c:	300051d0 	ldrccd	r5, [r0], -r0
30005180:	3000509c 	mulcc	r0, ip, r0
30005184:	3000509c 	mulcc	r0, ip, r0
30005188:	3000509c 	mulcc	r0, ip, r0
3000518c:	3000509c 	mulcc	r0, ip, r0
30005190:	3000509c 	mulcc	r0, ip, r0
30005194:	3000509c 	mulcc	r0, ip, r0
30005198:	3000509c 	mulcc	r0, ip, r0
3000519c:	3000509c 	mulcc	r0, ip, r0
300051a0:	3000509c 	mulcc	r0, ip, r0
300051a4:	3000509c 	mulcc	r0, ip, r0
300051a8:	3000509c 	mulcc	r0, ip, r0
300051ac:	300051e8 	andcc	r5, r0, r8, ror #3
300051b0:	300051e0 	andcc	r5, r0, r0, ror #3
300051b4:	300051c8 	andcc	r5, r0, r8, asr #3
300051b8:	3000509c 	mulcc	r0, ip, r0
300051bc:	3000509c 	mulcc	r0, ip, r0
300051c0:	3000509c 	mulcc	r0, ip, r0
300051c4:	300051d8 	ldrccd	r5, [r0], -r8
300051c8:	ebfffe1d 	bl	30004a44 <do_scan_nor_flash>
300051cc:	eaffffb2 	b	3000509c <nor_flash_test+0x10>
300051d0:	ebfffeb8 	bl	30004cb8 <do_erase_nor_flash>
300051d4:	eaffffb0 	b	3000509c <nor_flash_test+0x10>
300051d8:	ebfffede 	bl	30004d58 <do_write_nor_flash>
300051dc:	eaffffae 	b	3000509c <nor_flash_test+0x10>
300051e0:	ebffff4a 	bl	30004f10 <do_read_nor_flash>
300051e4:	eaffffac 	b	3000509c <nor_flash_test+0x10>
300051e8:	e89da808 	ldmia	sp, {r3, fp, sp, pc}
300051ec:	300075e8 	andcc	r7, r0, r8, ror #11
300051f0:	30007600 	andcc	r7, r0, r0, lsl #12
300051f4:	30007618 	andcc	r7, r0, r8, lsl r6
300051f8:	30007630 	andcc	r7, r0, r0, lsr r6
300051fc:	30007648 	andcc	r7, r0, r8, asr #12
30005200:	30007654 	andcc	r7, r0, r4, asr r6
30005204:	30007668 	andcc	r7, r0, r8, ror #12

30005208 <printException>:
30005208:	e1a0c00d 	mov	ip, sp
3000520c:	e92dd800 	stmdb	sp!, {fp, ip, lr, pc}
30005210:	e24cb004 	sub	fp, ip, #4	; 0x4
30005214:	e24dd008 	sub	sp, sp, #8	; 0x8
30005218:	e50b0010 	str	r0, [fp, #-16]
3000521c:	e50b1014 	str	r1, [fp, #-20]
30005220:	e59f0010 	ldr	r0, [pc, #16]	; 30005238 <.text+0x5238>
30005224:	e51b1010 	ldr	r1, [fp, #-16]
30005228:	e51b2014 	ldr	r2, [fp, #-20]
3000522c:	ebfff175 	bl	30001808 <printf>
30005230:	e24bd00c 	sub	sp, fp, #12	; 0xc
30005234:	e89da800 	ldmia	sp, {fp, sp, pc}
30005238:	30007670 	andcc	r7, r0, r0, ror r6

3000523c <printSWIVal>:
3000523c:	e1a0c00d 	mov	ip, sp
30005240:	e92dd800 	stmdb	sp!, {fp, ip, lr, pc}
30005244:	e24cb004 	sub	fp, ip, #4	; 0x4
30005248:	e24dd008 	sub	sp, sp, #8	; 0x8
3000524c:	e50b0010 	str	r0, [fp, #-16]
30005250:	e51b3010 	ldr	r3, [fp, #-16]
30005254:	e5933000 	ldr	r3, [r3]
30005258:	e3c334ff 	bic	r3, r3, #-16777216	; 0xff000000
3000525c:	e50b3014 	str	r3, [fp, #-20]
30005260:	e59f001c 	ldr	r0, [pc, #28]	; 30005284 <.text+0x5284>
30005264:	e51b1010 	ldr	r1, [fp, #-16]
30005268:	e51b2010 	ldr	r2, [fp, #-16]
3000526c:	ebfff165 	bl	30001808 <printf>
30005270:	e59f0010 	ldr	r0, [pc, #16]	; 30005288 <.text+0x5288>
30005274:	e51b1014 	ldr	r1, [fp, #-20]
30005278:	ebfff162 	bl	30001808 <printf>
3000527c:	e24bd00c 	sub	sp, fp, #12	; 0xc
30005280:	e89da800 	ldmia	sp, {fp, sp, pc}
30005284:	30007684 	andcc	r7, r0, r4, lsl #13
30005288:	30007698 	mulcc	r0, r8, r6

3000528c <printfhex>:
3000528c:	e1a0c00d 	mov	ip, sp
30005290:	e92dd800 	stmdb	sp!, {fp, ip, lr, pc}
30005294:	e24cb004 	sub	fp, ip, #4	; 0x4
30005298:	e24dd010 	sub	sp, sp, #16	; 0x10
3000529c:	e50b0010 	str	r0, [fp, #-16]
300052a0:	e3a03000 	mov	r3, #0	; 0x0
300052a4:	e50b3014 	str	r3, [fp, #-20]
300052a8:	e51b3014 	ldr	r3, [fp, #-20]
300052ac:	e3530007 	cmp	r3, #7	; 0x7
300052b0:	ca00000e 	bgt	300052f0 <printfhex+0x64>
300052b4:	e3e0200f 	mvn	r2, #15	; 0xf
300052b8:	e51b3014 	ldr	r3, [fp, #-20]
300052bc:	e24b000c 	sub	r0, fp, #12	; 0xc
300052c0:	e0803003 	add	r3, r0, r3
300052c4:	e0832002 	add	r2, r3, r2
300052c8:	e51b3010 	ldr	r3, [fp, #-16]
300052cc:	e203300f 	and	r3, r3, #15	; 0xf
300052d0:	e5c23000 	strb	r3, [r2]
300052d4:	e51b3010 	ldr	r3, [fp, #-16]
300052d8:	e1a03243 	mov	r3, r3, asr #4
300052dc:	e50b3010 	str	r3, [fp, #-16]
300052e0:	e51b3014 	ldr	r3, [fp, #-20]
300052e4:	e2833001 	add	r3, r3, #1	; 0x1
300052e8:	e50b3014 	str	r3, [fp, #-20]
300052ec:	eaffffed 	b	300052a8 <printfhex+0x1c>
300052f0:	e59f0054 	ldr	r0, [pc, #84]	; 3000534c <.text+0x534c>
300052f4:	ebfffaeb 	bl	30003ea8 <puts>
300052f8:	e3a03007 	mov	r3, #7	; 0x7
300052fc:	e50b3014 	str	r3, [fp, #-20]
30005300:	e51b3014 	ldr	r3, [fp, #-20]
30005304:	e3530000 	cmp	r3, #0	; 0x0
30005308:	ba00000d 	blt	30005344 <printfhex+0xb8>
3000530c:	e59f103c 	ldr	r1, [pc, #60]	; 30005350 <.text+0x5350>
30005310:	e3e0200f 	mvn	r2, #15	; 0xf
30005314:	e51b3014 	ldr	r3, [fp, #-20]
30005318:	e24b000c 	sub	r0, fp, #12	; 0xc
3000531c:	e0803003 	add	r3, r0, r3
30005320:	e0833002 	add	r3, r3, r2
30005324:	e5d33000 	ldrb	r3, [r3]
30005328:	e7d13003 	ldrb	r3, [r1, r3]
3000532c:	e1a00003 	mov	r0, r3
30005330:	ebfffa97 	bl	30003d94 <putchar>
30005334:	e51b3014 	ldr	r3, [fp, #-20]
30005338:	e2433001 	sub	r3, r3, #1	; 0x1
3000533c:	e50b3014 	str	r3, [fp, #-20]
30005340:	eaffffee 	b	30005300 <printfhex+0x74>
30005344:	e24bd00c 	sub	sp, fp, #12	; 0xc
30005348:	e89da800 	ldmia	sp, {fp, sp, pc}
3000534c:	300076b8 	strcch	r7, [r0], -r8
30005350:	300076a8 	andcc	r7, r0, r8, lsr #13

30005354 <handle_irq>:
30005354:	e1a0c00d 	mov	ip, sp
30005358:	e92dd800 	stmdb	sp!, {fp, ip, lr, pc}
3000535c:	e24cb004 	sub	fp, ip, #4	; 0x4
30005360:	e24dd008 	sub	sp, sp, #8	; 0x8
30005364:	e3a03456 	mov	r3, #1442840576	; 0x56000000
30005368:	e28330a8 	add	r3, r3, #168	; 0xa8
3000536c:	e5933000 	ldr	r3, [r3]
30005370:	e50b3010 	str	r3, [fp, #-16]
30005374:	e3a0344a 	mov	r3, #1241513984	; 0x4a000000
30005378:	e2833014 	add	r3, r3, #20	; 0x14
3000537c:	e5933000 	ldr	r3, [r3]
30005380:	e50b3014 	str	r3, [fp, #-20]
30005384:	e51b3014 	ldr	r3, [fp, #-20]
30005388:	e3530002 	cmp	r3, #2	; 0x2
3000538c:	1a000004 	bne	300053a4 <handle_irq+0x50>
30005390:	e59f20a8 	ldr	r2, [pc, #168]	; 30005440 <.text+0x5440>
30005394:	e51b3014 	ldr	r3, [fp, #-20]
30005398:	e59f00a4 	ldr	r0, [pc, #164]	; 30005444 <.text+0x5444>
3000539c:	e7921103 	ldr	r1, [r2, r3, lsl #2]
300053a0:	ebfff118 	bl	30001808 <printf>
300053a4:	e59f3094 	ldr	r3, [pc, #148]	; 30005440 <.text+0x5440>
300053a8:	e51b2014 	ldr	r2, [fp, #-20]
300053ac:	e7933102 	ldr	r3, [r3, r2, lsl #2]
300053b0:	e3530000 	cmp	r3, #0	; 0x0
300053b4:	0a000005 	beq	300053d0 <handle_irq+0x7c>
300053b8:	e59f3080 	ldr	r3, [pc, #128]	; 30005440 <.text+0x5440>
300053bc:	e51b2014 	ldr	r2, [fp, #-20]
300053c0:	e7933102 	ldr	r3, [r3, r2, lsl #2]
300053c4:	e1a0e00f 	mov	lr, pc
300053c8:	e1a0f003 	mov	pc, r3
300053cc:	ea000002 	b	300053dc <handle_irq+0x88>
300053d0:	e59f0070 	ldr	r0, [pc, #112]	; 30005448 <.text+0x5448>
300053d4:	e51b1014 	ldr	r1, [fp, #-20]
300053d8:	ebfff10a 	bl	30001808 <printf>
300053dc:	e3a03456 	mov	r3, #1442840576	; 0x56000000
300053e0:	e28330a8 	add	r3, r3, #168	; 0xa8
300053e4:	e51b2010 	ldr	r2, [fp, #-16]
300053e8:	e5832000 	str	r2, [r3]
300053ec:	e3a02001 	mov	r2, #1	; 0x1
300053f0:	e51b3014 	ldr	r3, [fp, #-20]
300053f4:	e1a01312 	mov	r1, r2, lsl r3
300053f8:	e3a02001 	mov	r2, #1	; 0x1
300053fc:	e51b3014 	ldr	r3, [fp, #-20]
30005400:	e1a03312 	mov	r3, r2, lsl r3
30005404:	e3a0044a 	mov	r0, #1241513984	; 0x4a000000
30005408:	e1a02003 	mov	r2, r3
3000540c:	eb000023 	bl	300054a0 <gpio_set>
30005410:	e3a02001 	mov	r2, #1	; 0x1
30005414:	e51b3014 	ldr	r3, [fp, #-20]
30005418:	e1a01312 	mov	r1, r2, lsl r3
3000541c:	e3a02001 	mov	r2, #1	; 0x1
30005420:	e51b3014 	ldr	r3, [fp, #-20]
30005424:	e1a03312 	mov	r3, r2, lsl r3
30005428:	e3a0044a 	mov	r0, #1241513984	; 0x4a000000
3000542c:	e2800010 	add	r0, r0, #16	; 0x10
30005430:	e1a02003 	mov	r2, r3
30005434:	eb000019 	bl	300054a0 <gpio_set>
30005438:	e24bd00c 	sub	sp, fp, #12	; 0xc
3000543c:	e89da800 	ldmia	sp, {fp, sp, pc}
30005440:	30007980 	andcc	r7, r0, r0, lsl #19
30005444:	300076bc 	strcch	r7, [r0], -ip
30005448:	300076d0 	ldrccd	r7, [r0], -r0

3000544c <register_irq>:
3000544c:	e1a0c00d 	mov	ip, sp
30005450:	e92dd800 	stmdb	sp!, {fp, ip, lr, pc}
30005454:	e24cb004 	sub	fp, ip, #4	; 0x4
30005458:	e24dd008 	sub	sp, sp, #8	; 0x8
3000545c:	e50b0010 	str	r0, [fp, #-16]
30005460:	e50b1014 	str	r1, [fp, #-20]
30005464:	e59f1030 	ldr	r1, [pc, #48]	; 3000549c <.text+0x549c>
30005468:	e51b2010 	ldr	r2, [fp, #-16]
3000546c:	e51b3014 	ldr	r3, [fp, #-20]
30005470:	e7813102 	str	r3, [r1, r2, lsl #2]
30005474:	e3a02001 	mov	r2, #1	; 0x1
30005478:	e51b3010 	ldr	r3, [fp, #-16]
3000547c:	e1a03312 	mov	r3, r2, lsl r3
30005480:	e3a0044a 	mov	r0, #1241513984	; 0x4a000000
30005484:	e2800008 	add	r0, r0, #8	; 0x8
30005488:	e1a01003 	mov	r1, r3
3000548c:	e3a02000 	mov	r2, #0	; 0x0
30005490:	eb000002 	bl	300054a0 <gpio_set>
30005494:	e24bd00c 	sub	sp, fp, #12	; 0xc
30005498:	e89da800 	ldmia	sp, {fp, sp, pc}
3000549c:	30007980 	andcc	r7, r0, r0, lsl #19

300054a0 <gpio_set>:
300054a0:	e1a0c00d 	mov	ip, sp
300054a4:	e92dd800 	stmdb	sp!, {fp, ip, lr, pc}
300054a8:	e24cb004 	sub	fp, ip, #4	; 0x4
300054ac:	e24dd014 	sub	sp, sp, #20	; 0x14
300054b0:	e50b0010 	str	r0, [fp, #-16]
300054b4:	e50b1014 	str	r1, [fp, #-20]
300054b8:	e50b2018 	str	r2, [fp, #-24]
300054bc:	e51b3010 	ldr	r3, [fp, #-16]
300054c0:	e5933000 	ldr	r3, [r3]
300054c4:	e50b301c 	str	r3, [fp, #-28]
300054c8:	e51b3014 	ldr	r3, [fp, #-20]
300054cc:	e1e02003 	mvn	r2, r3
300054d0:	e51b3018 	ldr	r3, [fp, #-24]
300054d4:	e0023003 	and	r3, r2, r3
300054d8:	e3530000 	cmp	r3, #0	; 0x0
300054dc:	0a000002 	beq	300054ec <gpio_set+0x4c>
300054e0:	e3e03000 	mvn	r3, #0	; 0x0
300054e4:	e50b3020 	str	r3, [fp, #-32]
300054e8:	ea00000d 	b	30005524 <gpio_set+0x84>
300054ec:	e51b3014 	ldr	r3, [fp, #-20]
300054f0:	e1e02003 	mvn	r2, r3
300054f4:	e51b301c 	ldr	r3, [fp, #-28]
300054f8:	e0033002 	and	r3, r3, r2
300054fc:	e50b301c 	str	r3, [fp, #-28]
30005500:	e51b201c 	ldr	r2, [fp, #-28]
30005504:	e51b3018 	ldr	r3, [fp, #-24]
30005508:	e1823003 	orr	r3, r2, r3
3000550c:	e50b301c 	str	r3, [fp, #-28]
30005510:	e51b2010 	ldr	r2, [fp, #-16]
30005514:	e51b301c 	ldr	r3, [fp, #-28]
30005518:	e5823000 	str	r3, [r2]
3000551c:	e3a03000 	mov	r3, #0	; 0x0
30005520:	e50b3020 	str	r3, [fp, #-32]
30005524:	e51b0020 	ldr	r0, [fp, #-32]
30005528:	e24bd00c 	sub	sp, fp, #12	; 0xc
3000552c:	e89da800 	ldmia	sp, {fp, sp, pc}

30005530 <printf1>:
30005530:	e1a0c00d 	mov	ip, sp
30005534:	e92dd800 	stmdb	sp!, {fp, ip, lr, pc}
30005538:	e24cb004 	sub	fp, ip, #4	; 0x4
3000553c:	e59f0004 	ldr	r0, [pc, #4]	; 30005548 <.text+0x5548>
30005540:	ebfff0b0 	bl	30001808 <printf>
30005544:	e89da800 	ldmia	sp, {fp, sp, pc}
30005548:	300076ec 	andcc	r7, r0, ip, ror #13

3000554c <printf2>:
3000554c:	e1a0c00d 	mov	ip, sp
30005550:	e92dd800 	stmdb	sp!, {fp, ip, lr, pc}
30005554:	e24cb004 	sub	fp, ip, #4	; 0x4
30005558:	e59f0004 	ldr	r0, [pc, #4]	; 30005564 <.text+0x5564>
3000555c:	ebfff0a9 	bl	30001808 <printf>
30005560:	e89da800 	ldmia	sp, {fp, sp, pc}
30005564:	30007708 	andcc	r7, r0, r8, lsl #14

30005568 <main>:
30005568:	e1a0c00d 	mov	ip, sp
3000556c:	e92dd800 	stmdb	sp!, {fp, ip, lr, pc}
30005570:	e24cb004 	sub	fp, ip, #4	; 0x4
30005574:	e24dd02c 	sub	sp, sp, #44	; 0x2c
30005578:	e3a03001 	mov	r3, #1	; 0x1
3000557c:	e50b301c 	str	r3, [fp, #-28]
30005580:	e3a03000 	mov	r3, #0	; 0x0
30005584:	e50b3030 	str	r3, [fp, #-48]
30005588:	e3a03000 	mov	r3, #0	; 0x0
3000558c:	e50b3034 	str	r3, [fp, #-52]
30005590:	ebfff641 	bl	30002e9c <lcd_test>
30005594:	ebfff863 	bl	30003728 <lcd_map_init>
30005598:	e24b3020 	sub	r3, fp, #32	; 0x20
3000559c:	e24b2024 	sub	r2, fp, #36	; 0x24
300055a0:	e1a00003 	mov	r0, r3
300055a4:	e1a01002 	mov	r1, r2
300055a8:	ebfffada 	bl	30004118 <get_xy>
300055ac:	e24b3028 	sub	r3, fp, #40	; 0x28
300055b0:	e24bc02c 	sub	ip, fp, #44	; 0x2c
300055b4:	e51b0020 	ldr	r0, [fp, #-32]
300055b8:	e51b1024 	ldr	r1, [fp, #-36]
300055bc:	e1a02003 	mov	r2, r3
300055c0:	e1a0300c 	mov	r3, ip
300055c4:	ebfff904 	bl	300039dc <map_xy>
300055c8:	e51b3034 	ldr	r3, [fp, #-52]
300055cc:	e3530000 	cmp	r3, #0	; 0x0
300055d0:	1a000004 	bne	300055e8 <main+0x80>
300055d4:	e51b0028 	ldr	r0, [fp, #-40]
300055d8:	e51b102c 	ldr	r1, [fp, #-44]
300055dc:	e3e024ff 	mvn	r2, #-16777216	; 0xff000000
300055e0:	ebfff460 	bl	30002768 <fb_put_pixel>
300055e4:	ea000006 	b	30005604 <main+0x9c>
300055e8:	e3e034ff 	mvn	r3, #-16777216	; 0xff000000
300055ec:	e58d3000 	str	r3, [sp]
300055f0:	e51b0030 	ldr	r0, [fp, #-48]
300055f4:	e51b1034 	ldr	r1, [fp, #-52]
300055f8:	e51b2028 	ldr	r2, [fp, #-40]
300055fc:	e51b302c 	ldr	r3, [fp, #-44]
30005600:	ebfff2c1 	bl	3000210c <draw_line>
30005604:	e51b3028 	ldr	r3, [fp, #-40]
30005608:	e50b3030 	str	r3, [fp, #-48]
3000560c:	e51b302c 	ldr	r3, [fp, #-44]
30005610:	e50b3034 	str	r3, [fp, #-52]
30005614:	e59f0014 	ldr	r0, [pc, #20]	; 30005630 <.text+0x5630>
30005618:	e51b1028 	ldr	r1, [fp, #-40]
3000561c:	e51b202c 	ldr	r2, [fp, #-44]
30005620:	ebfff078 	bl	30001808 <printf>
30005624:	e3a0000a 	mov	r0, #10	; 0xa
30005628:	ebfffc96 	bl	30004888 <delay>
3000562c:	eaffffd9 	b	30005598 <main+0x30>
30005630:	30007714 	andcc	r7, r0, r4, lsl r7

30005634 <__udivsi3>:
30005634:	e2512001 	subs	r2, r1, #1	; 0x1
30005638:	01a0f00e 	moveq	pc, lr
3000563c:	3a000036 	bcc	3000571c <__udivsi3+0xe8>
30005640:	e1500001 	cmp	r0, r1
30005644:	9a000022 	bls	300056d4 <__udivsi3+0xa0>
30005648:	e1110002 	tst	r1, r2
3000564c:	0a000023 	beq	300056e0 <__udivsi3+0xac>
30005650:	e311020e 	tst	r1, #-536870912	; 0xe0000000
30005654:	01a01181 	moveq	r1, r1, lsl #3
30005658:	03a03008 	moveq	r3, #8	; 0x8
3000565c:	13a03001 	movne	r3, #1	; 0x1
30005660:	e3510201 	cmp	r1, #268435456	; 0x10000000
30005664:	31510000 	cmpcc	r1, r0
30005668:	31a01201 	movcc	r1, r1, lsl #4
3000566c:	31a03203 	movcc	r3, r3, lsl #4
30005670:	3afffffa 	bcc	30005660 <__udivsi3+0x2c>
30005674:	e3510102 	cmp	r1, #-2147483648	; 0x80000000
30005678:	31510000 	cmpcc	r1, r0
3000567c:	31a01081 	movcc	r1, r1, lsl #1
30005680:	31a03083 	movcc	r3, r3, lsl #1
30005684:	3afffffa 	bcc	30005674 <__udivsi3+0x40>
30005688:	e3a02000 	mov	r2, #0	; 0x0
3000568c:	e1500001 	cmp	r0, r1
30005690:	20400001 	subcs	r0, r0, r1
30005694:	21822003 	orrcs	r2, r2, r3
30005698:	e15000a1 	cmp	r0, r1, lsr #1
3000569c:	204000a1 	subcs	r0, r0, r1, lsr #1
300056a0:	218220a3 	orrcs	r2, r2, r3, lsr #1
300056a4:	e1500121 	cmp	r0, r1, lsr #2
300056a8:	20400121 	subcs	r0, r0, r1, lsr #2
300056ac:	21822123 	orrcs	r2, r2, r3, lsr #2
300056b0:	e15001a1 	cmp	r0, r1, lsr #3
300056b4:	204001a1 	subcs	r0, r0, r1, lsr #3
300056b8:	218221a3 	orrcs	r2, r2, r3, lsr #3
300056bc:	e3500000 	cmp	r0, #0	; 0x0
300056c0:	11b03223 	movnes	r3, r3, lsr #4
300056c4:	11a01221 	movne	r1, r1, lsr #4
300056c8:	1affffef 	bne	3000568c <__udivsi3+0x58>
300056cc:	e1a00002 	mov	r0, r2
300056d0:	e1a0f00e 	mov	pc, lr
300056d4:	03a00001 	moveq	r0, #1	; 0x1
300056d8:	13a00000 	movne	r0, #0	; 0x0
300056dc:	e1a0f00e 	mov	pc, lr
300056e0:	e3510801 	cmp	r1, #65536	; 0x10000
300056e4:	21a01821 	movcs	r1, r1, lsr #16
300056e8:	23a02010 	movcs	r2, #16	; 0x10
300056ec:	33a02000 	movcc	r2, #0	; 0x0
300056f0:	e3510c01 	cmp	r1, #256	; 0x100
300056f4:	21a01421 	movcs	r1, r1, lsr #8
300056f8:	22822008 	addcs	r2, r2, #8	; 0x8
300056fc:	e3510010 	cmp	r1, #16	; 0x10
30005700:	21a01221 	movcs	r1, r1, lsr #4
30005704:	22822004 	addcs	r2, r2, #4	; 0x4
30005708:	e3510004 	cmp	r1, #4	; 0x4
3000570c:	82822003 	addhi	r2, r2, #3	; 0x3
30005710:	908220a1 	addls	r2, r2, r1, lsr #1
30005714:	e1a00230 	mov	r0, r0, lsr r2
30005718:	e1a0f00e 	mov	pc, lr
3000571c:	e52de004 	str	lr, [sp, #-4]!
30005720:	eb000034 	bl	300057f8 <__div0>
30005724:	e3a00000 	mov	r0, #0	; 0x0
30005728:	e49df004 	ldr	pc, [sp], #4

3000572c <__umodsi3>:
3000572c:	e2512001 	subs	r2, r1, #1	; 0x1
30005730:	3a00002c 	bcc	300057e8 <__umodsi3+0xbc>
30005734:	11500001 	cmpne	r0, r1
30005738:	03a00000 	moveq	r0, #0	; 0x0
3000573c:	81110002 	tsthi	r1, r2
30005740:	00000002 	andeq	r0, r0, r2
30005744:	91a0f00e 	movls	pc, lr
30005748:	e3a02000 	mov	r2, #0	; 0x0
3000574c:	e3510201 	cmp	r1, #268435456	; 0x10000000
30005750:	31510000 	cmpcc	r1, r0
30005754:	31a01201 	movcc	r1, r1, lsl #4
30005758:	32822004 	addcc	r2, r2, #4	; 0x4
3000575c:	3afffffa 	bcc	3000574c <__umodsi3+0x20>
30005760:	e3510102 	cmp	r1, #-2147483648	; 0x80000000
30005764:	31510000 	cmpcc	r1, r0
30005768:	31a01081 	movcc	r1, r1, lsl #1
3000576c:	32822001 	addcc	r2, r2, #1	; 0x1
30005770:	3afffffa 	bcc	30005760 <__umodsi3+0x34>
30005774:	e2522003 	subs	r2, r2, #3	; 0x3
30005778:	ba00000e 	blt	300057b8 <__umodsi3+0x8c>
3000577c:	e1500001 	cmp	r0, r1
30005780:	20400001 	subcs	r0, r0, r1
30005784:	e15000a1 	cmp	r0, r1, lsr #1
30005788:	204000a1 	subcs	r0, r0, r1, lsr #1
3000578c:	e1500121 	cmp	r0, r1, lsr #2
30005790:	20400121 	subcs	r0, r0, r1, lsr #2
30005794:	e15001a1 	cmp	r0, r1, lsr #3
30005798:	204001a1 	subcs	r0, r0, r1, lsr #3
3000579c:	e3500001 	cmp	r0, #1	; 0x1
300057a0:	e1a01221 	mov	r1, r1, lsr #4
300057a4:	a2522004 	subges	r2, r2, #4	; 0x4
300057a8:	aafffff3 	bge	3000577c <__umodsi3+0x50>
300057ac:	e3120003 	tst	r2, #3	; 0x3
300057b0:	13300000 	teqne	r0, #0	; 0x0
300057b4:	0a00000a 	beq	300057e4 <__umodsi3+0xb8>
300057b8:	e3720002 	cmn	r2, #2	; 0x2
300057bc:	ba000006 	blt	300057dc <__umodsi3+0xb0>
300057c0:	0a000002 	beq	300057d0 <__umodsi3+0xa4>
300057c4:	e1500001 	cmp	r0, r1
300057c8:	20400001 	subcs	r0, r0, r1
300057cc:	e1a010a1 	mov	r1, r1, lsr #1
300057d0:	e1500001 	cmp	r0, r1
300057d4:	20400001 	subcs	r0, r0, r1
300057d8:	e1a010a1 	mov	r1, r1, lsr #1
300057dc:	e1500001 	cmp	r0, r1
300057e0:	20400001 	subcs	r0, r0, r1
300057e4:	e1a0f00e 	mov	pc, lr
300057e8:	e52de004 	str	lr, [sp, #-4]!
300057ec:	eb000001 	bl	300057f8 <__div0>
300057f0:	e3a00000 	mov	r0, #0	; 0x0
300057f4:	e49df004 	ldr	pc, [sp], #4

300057f8 <__div0>:
300057f8:	e92d4002 	stmdb	sp!, {r1, lr}
300057fc:	ef900014 	swi	0x00900014
30005800:	e3700ffa 	cmn	r0, #1000	; 0x3e8
30005804:	28bd8002 	ldmcsia	sp!, {r1, pc}
30005808:	e3a01008 	mov	r1, #8	; 0x8
3000580c:	ef900025 	swi	0x00900025
30005810:	e8bd8002 	ldmia	sp!, {r1, pc}

30005814 <__subdf3>:
30005814:	e2222102 	eor	r2, r2, #-2147483648	; 0x80000000

30005818 <__adddf3>:
30005818:	e1310003 	teq	r1, r3
3000581c:	0020c002 	eoreq	ip, r0, r2
30005820:	033c0102 	teqeq	ip, #-2147483648	; 0x80000000
30005824:	0a00009e 	beq	30005aa4 <__adddf3+0x28c>
30005828:	e191c080 	orrs	ip, r1, r0, lsl #1
3000582c:	01a01003 	moveq	r1, r3
30005830:	01a00002 	moveq	r0, r2
30005834:	1193c082 	orrnes	ip, r3, r2, lsl #1
30005838:	01a0f00e 	moveq	pc, lr
3000583c:	e92d4030 	stmdb	sp!, {r4, r5, lr}
30005840:	e3a0c47f 	mov	ip, #2130706432	; 0x7f000000
30005844:	e38cc60f 	orr	ip, ip, #15728640	; 0xf00000
30005848:	e000400c 	and	r4, r0, ip
3000584c:	e002500c 	and	r5, r2, ip
30005850:	e134000c 	teq	r4, ip
30005854:	1135000c 	teqne	r5, ip
30005858:	0a00009c 	beq	30005ad0 <__adddf3+0x2b8>
3000585c:	e0555004 	subs	r5, r5, r4
30005860:	b2655000 	rsblt	r5, r5, #0	; 0x0
30005864:	da000006 	ble	30005884 <__adddf3+0x6c>
30005868:	e0844005 	add	r4, r4, r5
3000586c:	e0213003 	eor	r3, r1, r3
30005870:	e0202002 	eor	r2, r0, r2
30005874:	e0231001 	eor	r1, r3, r1
30005878:	e0220000 	eor	r0, r2, r0
3000587c:	e0213003 	eor	r3, r1, r3
30005880:	e0202002 	eor	r2, r0, r2
30005884:	e3550636 	cmp	r5, #56623104	; 0x3600000
30005888:	88bd8030 	ldmhiia	sp!, {r4, r5, pc}
3000588c:	e3100102 	tst	r0, #-2147483648	; 0x80000000
30005890:	e1c0008c 	bic	r0, r0, ip, lsl #1
30005894:	e3800601 	orr	r0, r0, #1048576	; 0x100000
30005898:	0a000001 	beq	300058a4 <__adddf3+0x8c>
3000589c:	e2711000 	rsbs	r1, r1, #0	; 0x0
300058a0:	e2e00000 	rsc	r0, r0, #0	; 0x0
300058a4:	e3120102 	tst	r2, #-2147483648	; 0x80000000
300058a8:	e1c2208c 	bic	r2, r2, ip, lsl #1
300058ac:	e3822601 	orr	r2, r2, #1048576	; 0x100000
300058b0:	0a000001 	beq	300058bc <__adddf3+0xa4>
300058b4:	e2733000 	rsbs	r3, r3, #0	; 0x0
300058b8:	e2e22000 	rsc	r2, r2, #0	; 0x0
300058bc:	e1340005 	teq	r4, r5
300058c0:	0a000071 	beq	30005a8c <__adddf3+0x274>
300058c4:	e3a0c000 	mov	ip, #0	; 0x0
300058c8:	e1b05a25 	movs	r5, r5, lsr #20
300058cc:	0a000013 	beq	30005920 <__adddf3+0x108>
300058d0:	e3340601 	teq	r4, #1048576	; 0x100000
300058d4:	0a000004 	beq	300058ec <__adddf3+0xd4>
300058d8:	e1b01081 	movs	r1, r1, lsl #1
300058dc:	e0ac0080 	adc	r0, ip, r0, lsl #1
300058e0:	e2444601 	sub	r4, r4, #1048576	; 0x100000
300058e4:	e2555001 	subs	r5, r5, #1	; 0x1
300058e8:	0a00000c 	beq	30005920 <__adddf3+0x108>
300058ec:	e275e020 	rsbs	lr, r5, #32	; 0x20
300058f0:	ba000004 	blt	30005908 <__adddf3+0xf0>
300058f4:	e1a0ce13 	mov	ip, r3, lsl lr
300058f8:	e1a03533 	mov	r3, r3, lsr r5
300058fc:	e1833e12 	orr	r3, r3, r2, lsl lr
30005900:	e1a02552 	mov	r2, r2, asr r5
30005904:	ea000005 	b	30005920 <__adddf3+0x108>
30005908:	e2455020 	sub	r5, r5, #32	; 0x20
3000590c:	e28ee020 	add	lr, lr, #32	; 0x20
30005910:	e3530001 	cmp	r3, #1	; 0x1
30005914:	e0acce12 	adc	ip, ip, r2, lsl lr
30005918:	e1a03552 	mov	r3, r2, asr r5
3000591c:	e1a02042 	mov	r2, r2, asr #32
30005920:	e0911003 	adds	r1, r1, r3
30005924:	e0a00002 	adc	r0, r0, r2
30005928:	e2105102 	ands	r5, r0, #-2147483648	; 0x80000000
3000592c:	5a000002 	bpl	3000593c <__adddf3+0x124>
30005930:	e27cc000 	rsbs	ip, ip, #0	; 0x0
30005934:	e2f11000 	rscs	r1, r1, #0	; 0x0
30005938:	e2e00000 	rsc	r0, r0, #0	; 0x0
3000593c:	e3500601 	cmp	r0, #1048576	; 0x100000
30005940:	3a000019 	bcc	300059ac <__adddf3+0x194>
30005944:	e3500602 	cmp	r0, #2097152	; 0x200000
30005948:	3a00000b 	bcc	3000597c <__adddf3+0x164>
3000594c:	e3500501 	cmp	r0, #4194304	; 0x400000
30005950:	3a000004 	bcc	30005968 <__adddf3+0x150>
30005954:	e1b000a0 	movs	r0, r0, lsr #1
30005958:	e1b01061 	movs	r1, r1, rrx
3000595c:	e1b0c06c 	movs	ip, ip, rrx
30005960:	238cc001 	orrcs	ip, ip, #1	; 0x1
30005964:	e2844601 	add	r4, r4, #1048576	; 0x100000
30005968:	e1b000a0 	movs	r0, r0, lsr #1
3000596c:	e1b01061 	movs	r1, r1, rrx
30005970:	e1b0c06c 	movs	ip, ip, rrx
30005974:	238cc001 	orrcs	ip, ip, #1	; 0x1
30005978:	e2844601 	add	r4, r4, #1048576	; 0x100000
3000597c:	e0911fac 	adds	r1, r1, ip, lsr #31
30005980:	e2a00000 	adc	r0, r0, #0	; 0x0
30005984:	e33c0102 	teq	ip, #-2147483648	; 0x80000000
30005988:	03c11001 	biceq	r1, r1, #1	; 0x1
3000598c:	e3100602 	tst	r0, #2097152	; 0x200000
30005990:	12844601 	addne	r4, r4, #1048576	; 0x100000
30005994:	e294c601 	adds	ip, r4, #1048576	; 0x100000
30005998:	4a000048 	bmi	30005ac0 <__adddf3+0x2a8>
3000599c:	e3c00603 	bic	r0, r0, #3145728	; 0x300000
300059a0:	e1800004 	orr	r0, r0, r4
300059a4:	e1800005 	orr	r0, r0, r5
300059a8:	e8bd8030 	ldmia	sp!, {r4, r5, pc}
300059ac:	e3300000 	teq	r0, #0	; 0x0
300059b0:	13e0300a 	mvnne	r3, #10	; 0xa
300059b4:	03a03015 	moveq	r3, #21	; 0x15
300059b8:	01a00001 	moveq	r0, r1
300059bc:	03a01000 	moveq	r1, #0	; 0x0
300059c0:	e1a02000 	mov	r2, r0
300059c4:	e1b0c820 	movs	ip, r0, lsr #16
300059c8:	01a02802 	moveq	r2, r2, lsl #16
300059cc:	02833010 	addeq	r3, r3, #16	; 0x10
300059d0:	e31204ff 	tst	r2, #-16777216	; 0xff000000
300059d4:	01a02402 	moveq	r2, r2, lsl #8
300059d8:	02833008 	addeq	r3, r3, #8	; 0x8
300059dc:	e312020f 	tst	r2, #-268435456	; 0xf0000000
300059e0:	01a02202 	moveq	r2, r2, lsl #4
300059e4:	02833004 	addeq	r3, r3, #4	; 0x4
300059e8:	e3120103 	tst	r2, #-1073741824	; 0xc0000000
300059ec:	01a02102 	moveq	r2, r2, lsl #2
300059f0:	02833002 	addeq	r3, r3, #2	; 0x2
300059f4:	e3120102 	tst	r2, #-2147483648	; 0x80000000
300059f8:	02833001 	addeq	r3, r3, #1	; 0x1
300059fc:	e2532020 	subs	r2, r3, #32	; 0x20
30005a00:	aa000007 	bge	30005a24 <__adddf3+0x20c>
30005a04:	e292200c 	adds	r2, r2, #12	; 0xc
30005a08:	da000004 	ble	30005a20 <__adddf3+0x208>
30005a0c:	e282c014 	add	ip, r2, #20	; 0x14
30005a10:	e262200c 	rsb	r2, r2, #12	; 0xc
30005a14:	e1a01c10 	mov	r1, r0, lsl ip
30005a18:	e1a00230 	mov	r0, r0, lsr r2
30005a1c:	ea000004 	b	30005a34 <__adddf3+0x21c>
30005a20:	e2822014 	add	r2, r2, #20	; 0x14
30005a24:	d262c020 	rsble	ip, r2, #32	; 0x20
30005a28:	e1a00210 	mov	r0, r0, lsl r2
30005a2c:	d1800c31 	orrle	r0, r0, r1, lsr ip
30005a30:	d1a01211 	movle	r1, r1, lsl r2
30005a34:	e0544a03 	subs	r4, r4, r3, lsl #20
30005a38:	caffffd7 	bgt	3000599c <__adddf3+0x184>
30005a3c:	e1e04a44 	mvn	r4, r4, asr #20
30005a40:	e254401e 	subs	r4, r4, #30	; 0x1e
30005a44:	aa00000d 	bge	30005a80 <__adddf3+0x268>
30005a48:	e294400c 	adds	r4, r4, #12	; 0xc
30005a4c:	ca000005 	bgt	30005a68 <__adddf3+0x250>
30005a50:	e2844014 	add	r4, r4, #20	; 0x14
30005a54:	e2642020 	rsb	r2, r4, #32	; 0x20
30005a58:	e1a01431 	mov	r1, r1, lsr r4
30005a5c:	e1811210 	orr	r1, r1, r0, lsl r2
30005a60:	e1850430 	orr	r0, r5, r0, lsr r4
30005a64:	e8bd8030 	ldmia	sp!, {r4, r5, pc}
30005a68:	e264400c 	rsb	r4, r4, #12	; 0xc
30005a6c:	e2642020 	rsb	r2, r4, #32	; 0x20
30005a70:	e1a01231 	mov	r1, r1, lsr r2
30005a74:	e1811410 	orr	r1, r1, r0, lsl r4
30005a78:	e1a00005 	mov	r0, r5
30005a7c:	e8bd8030 	ldmia	sp!, {r4, r5, pc}
30005a80:	e1a01430 	mov	r1, r0, lsr r4
30005a84:	e1a00005 	mov	r0, r5
30005a88:	e8bd8030 	ldmia	sp!, {r4, r5, pc}
30005a8c:	e3340000 	teq	r4, #0	; 0x0
30005a90:	02200601 	eoreq	r0, r0, #1048576	; 0x100000
30005a94:	02844601 	addeq	r4, r4, #1048576	; 0x100000
30005a98:	e2222601 	eor	r2, r2, #1048576	; 0x100000
30005a9c:	12455601 	subne	r5, r5, #1048576	; 0x100000
30005aa0:	eaffff87 	b	300058c4 <__adddf3+0xac>
30005aa4:	e24cc601 	sub	ip, ip, #1048576	; 0x100000
30005aa8:	e000200c 	and	r2, r0, ip
30005aac:	e132000c 	teq	r2, ip
30005ab0:	038c0702 	orreq	r0, ip, #524288	; 0x80000
30005ab4:	13a00000 	movne	r0, #0	; 0x0
30005ab8:	e3a01000 	mov	r1, #0	; 0x0
30005abc:	e1a0f00e 	mov	pc, lr
30005ac0:	e385047f 	orr	r0, r5, #2130706432	; 0x7f000000
30005ac4:	e380060f 	orr	r0, r0, #15728640	; 0xf00000
30005ac8:	e3a01000 	mov	r1, #0	; 0x0
30005acc:	e8bd8030 	ldmia	sp!, {r4, r5, pc}
30005ad0:	e134000c 	teq	r4, ip
30005ad4:	11a00002 	movne	r0, r2
30005ad8:	11a01003 	movne	r1, r3
30005adc:	0135000c 	teqeq	r5, ip
30005ae0:	18bd8030 	ldmneia	sp!, {r4, r5, pc}
30005ae4:	e1914600 	orrs	r4, r1, r0, lsl #12
30005ae8:	01934602 	orreqs	r4, r3, r2, lsl #12
30005aec:	01300002 	teqeq	r0, r2
30005af0:	13850702 	orrne	r0, r5, #524288	; 0x80000
30005af4:	13a01000 	movne	r1, #0	; 0x0
30005af8:	e8bd8030 	ldmia	sp!, {r4, r5, pc}

30005afc <__floatunsidf>:
30005afc:	e3300000 	teq	r0, #0	; 0x0
30005b00:	03a01000 	moveq	r1, #0	; 0x0
30005b04:	01a0f00e 	moveq	pc, lr
30005b08:	e92d4030 	stmdb	sp!, {r4, r5, lr}
30005b0c:	e3a04101 	mov	r4, #1073741824	; 0x40000000
30005b10:	e2844633 	add	r4, r4, #53477376	; 0x3300000
30005b14:	e3a05000 	mov	r5, #0	; 0x0
30005b18:	e1a01000 	mov	r1, r0
30005b1c:	e3a00000 	mov	r0, #0	; 0x0
30005b20:	eaffffa1 	b	300059ac <__adddf3+0x194>

30005b24 <__floatsidf>:
30005b24:	e3300000 	teq	r0, #0	; 0x0
30005b28:	03a01000 	moveq	r1, #0	; 0x0
30005b2c:	01a0f00e 	moveq	pc, lr
30005b30:	e92d4030 	stmdb	sp!, {r4, r5, lr}
30005b34:	e3a04101 	mov	r4, #1073741824	; 0x40000000
30005b38:	e2844633 	add	r4, r4, #53477376	; 0x3300000
30005b3c:	e2105102 	ands	r5, r0, #-2147483648	; 0x80000000
30005b40:	42600000 	rsbmi	r0, r0, #0	; 0x0
30005b44:	e1a01000 	mov	r1, r0
30005b48:	e3a00000 	mov	r0, #0	; 0x0
30005b4c:	eaffff96 	b	300059ac <__adddf3+0x194>

30005b50 <__extendsfdf2>:
30005b50:	e1b02080 	movs	r2, r0, lsl #1
30005b54:	0a000007 	beq	30005b78 <__extendsfdf2+0x28>
30005b58:	e1a001c2 	mov	r0, r2, asr #3
30005b5c:	e1a00060 	mov	r0, r0, rrx
30005b60:	e1a01e02 	mov	r1, r2, lsl #28
30005b64:	e21224ff 	ands	r2, r2, #-16777216	; 0xff000000
30005b68:	0a000005 	beq	30005b84 <__extendsfdf2+0x34>
30005b6c:	e33204ff 	teq	r2, #-16777216	; 0xff000000
30005b70:	1220030e 	eorne	r0, r0, #939524096	; 0x38000000
30005b74:	e1a0f00e 	mov	pc, lr
30005b78:	e1a00000 	nop			(mov r0,r0)
30005b7c:	e3a01000 	mov	r1, #0	; 0x0
30005b80:	e1a0f00e 	mov	pc, lr
30005b84:	e92d4030 	stmdb	sp!, {r4, r5, lr}
30005b88:	e3a0430e 	mov	r4, #939524096	; 0x38000000
30005b8c:	e2844601 	add	r4, r4, #1048576	; 0x100000
30005b90:	e2005102 	and	r5, r0, #-2147483648	; 0x80000000
30005b94:	e3c00102 	bic	r0, r0, #-2147483648	; 0x80000000
30005b98:	eaffff83 	b	300059ac <__adddf3+0x194>

30005b9c <__muldf3>:
30005b9c:	e92d4070 	stmdb	sp!, {r4, r5, r6, lr}
30005ba0:	e3a0c47f 	mov	ip, #2130706432	; 0x7f000000
30005ba4:	e38cc60f 	orr	ip, ip, #15728640	; 0xf00000
30005ba8:	e000400c 	and	r4, r0, ip
30005bac:	e002500c 	and	r5, r2, ip
30005bb0:	e134000c 	teq	r4, ip
30005bb4:	1135000c 	teqne	r5, ip
30005bb8:	0a0000a8 	beq	30005e60 <__muldf3+0x2c4>
30005bbc:	e1916080 	orrs	r6, r1, r0, lsl #1
30005bc0:	11936082 	orrnes	r6, r3, r2, lsl #1
30005bc4:	0a00005e 	beq	30005d44 <__muldf3+0x1a8>
30005bc8:	e1b040a4 	movs	r4, r4, lsr #1
30005bcc:	13350000 	teqne	r5, #0	; 0x0
30005bd0:	0a00008e 	beq	30005e10 <__muldf3+0x274>
30005bd4:	e08440c5 	add	r4, r4, r5, asr #1
30005bd8:	e1300002 	teq	r0, r2
30005bdc:	43844902 	orrmi	r4, r4, #32768	; 0x8000
30005be0:	e1c0008c 	bic	r0, r0, ip, lsl #1
30005be4:	e1c2208c 	bic	r2, r2, ip, lsl #1
30005be8:	e3800601 	orr	r0, r0, #1048576	; 0x100000
30005bec:	e3822601 	orr	r2, r2, #1048576	; 0x100000
30005bf0:	e92d0f80 	stmdb	sp!, {r7, r8, r9, sl, fp}
30005bf4:	e1a07821 	mov	r7, r1, lsr #16
30005bf8:	e1a08823 	mov	r8, r3, lsr #16
30005bfc:	e1a09820 	mov	r9, r0, lsr #16
30005c00:	e1a0a822 	mov	sl, r2, lsr #16
30005c04:	e1c11807 	bic	r1, r1, r7, lsl #16
30005c08:	e1c33808 	bic	r3, r3, r8, lsl #16
30005c0c:	e1c00809 	bic	r0, r0, r9, lsl #16
30005c10:	e1c2280a 	bic	r2, r2, sl, lsl #16
30005c14:	e00c0391 	mul	ip, r1, r3
30005c18:	e00b0891 	mul	fp, r1, r8
30005c1c:	e3a0e000 	mov	lr, #0	; 0x0
30005c20:	e09cc80b 	adds	ip, ip, fp, lsl #16
30005c24:	e0aee82b 	adc	lr, lr, fp, lsr #16
30005c28:	e00b0397 	mul	fp, r7, r3
30005c2c:	e09cc80b 	adds	ip, ip, fp, lsl #16
30005c30:	e0aee82b 	adc	lr, lr, fp, lsr #16
30005c34:	e00b0a91 	mul	fp, r1, sl
30005c38:	e3a05000 	mov	r5, #0	; 0x0
30005c3c:	e09ee80b 	adds	lr, lr, fp, lsl #16
30005c40:	e0a5582b 	adc	r5, r5, fp, lsr #16
30005c44:	e00b0297 	mul	fp, r7, r2
30005c48:	e09ee80b 	adds	lr, lr, fp, lsl #16
30005c4c:	e0a5582b 	adc	r5, r5, fp, lsr #16
30005c50:	e00b0890 	mul	fp, r0, r8
30005c54:	e09ee80b 	adds	lr, lr, fp, lsl #16
30005c58:	e0a5582b 	adc	r5, r5, fp, lsr #16
30005c5c:	e00b0399 	mul	fp, r9, r3
30005c60:	e09ee80b 	adds	lr, lr, fp, lsl #16
30005c64:	e0a5582b 	adc	r5, r5, fp, lsr #16
30005c68:	e00b0a90 	mul	fp, r0, sl
30005c6c:	e0060a99 	mul	r6, r9, sl
30005c70:	e095580b 	adds	r5, r5, fp, lsl #16
30005c74:	e0a6682b 	adc	r6, r6, fp, lsr #16
30005c78:	e00b0299 	mul	fp, r9, r2
30005c7c:	e095580b 	adds	r5, r5, fp, lsl #16
30005c80:	e0a6682b 	adc	r6, r6, fp, lsr #16
30005c84:	e00b0291 	mul	fp, r1, r2
30005c88:	e09ee00b 	adds	lr, lr, fp
30005c8c:	e00b0a97 	mul	fp, r7, sl
30005c90:	e0b5500b 	adcs	r5, r5, fp
30005c94:	e00b0390 	mul	fp, r0, r3
30005c98:	e2a66000 	adc	r6, r6, #0	; 0x0
30005c9c:	e09ee00b 	adds	lr, lr, fp
30005ca0:	e00b0899 	mul	fp, r9, r8
30005ca4:	e0b5500b 	adcs	r5, r5, fp
30005ca8:	e00b0897 	mul	fp, r7, r8
30005cac:	e2a66000 	adc	r6, r6, #0	; 0x0
30005cb0:	e09ee00b 	adds	lr, lr, fp
30005cb4:	e00b0290 	mul	fp, r0, r2
30005cb8:	e0b5500b 	adcs	r5, r5, fp
30005cbc:	e2a66000 	adc	r6, r6, #0	; 0x0
30005cc0:	e8bd0f80 	ldmia	sp!, {r7, r8, r9, sl, fp}
30005cc4:	e33c0000 	teq	ip, #0	; 0x0
30005cc8:	138ee001 	orrne	lr, lr, #1	; 0x1
30005ccc:	e1a00804 	mov	r0, r4, lsl #16
30005cd0:	e3c44902 	bic	r4, r4, #32768	; 0x8000
30005cd4:	e3160c02 	tst	r6, #512	; 0x200
30005cd8:	0a000004 	beq	30005cf0 <__muldf3+0x154>
30005cdc:	e2844702 	add	r4, r4, #524288	; 0x80000
30005ce0:	e1b060a6 	movs	r6, r6, lsr #1
30005ce4:	e1b05065 	movs	r5, r5, rrx
30005ce8:	e1b0e06e 	movs	lr, lr, rrx
30005cec:	238ee001 	orrcs	lr, lr, #1	; 0x1
30005cf0:	e1800606 	orr	r0, r0, r6, lsl #12
30005cf4:	e1800a25 	orr	r0, r0, r5, lsr #20
30005cf8:	e1a01605 	mov	r1, r5, lsl #12
30005cfc:	e1811a2e 	orr	r1, r1, lr, lsr #20
30005d00:	e244473e 	sub	r4, r4, #16252928	; 0xf80000
30005d04:	e254441f 	subs	r4, r4, #520093696	; 0x1f000000
30005d08:	da000011 	ble	30005d54 <__muldf3+0x1b8>
30005d0c:	e1b0e60e 	movs	lr, lr, lsl #12
30005d10:	5a000005 	bpl	30005d2c <__muldf3+0x190>
30005d14:	e2911001 	adds	r1, r1, #1	; 0x1
30005d18:	e2a00000 	adc	r0, r0, #0	; 0x0
30005d1c:	e33e0102 	teq	lr, #-2147483648	; 0x80000000
30005d20:	03c11001 	biceq	r1, r1, #1	; 0x1
30005d24:	e3100602 	tst	r0, #2097152	; 0x200000
30005d28:	12844702 	addne	r4, r4, #524288	; 0x80000
30005d2c:	e294c702 	adds	ip, r4, #524288	; 0x80000
30005d30:	e31c0101 	tst	ip, #1073741824	; 0x40000000
30005d34:	1a000055 	bne	30005e90 <__muldf3+0x2f4>
30005d38:	e3c00603 	bic	r0, r0, #3145728	; 0x300000
30005d3c:	e1800084 	orr	r0, r0, r4, lsl #1
30005d40:	e8bd8070 	ldmia	sp!, {r4, r5, r6, pc}
30005d44:	e0200002 	eor	r0, r0, r2
30005d48:	e2000102 	and	r0, r0, #-2147483648	; 0x80000000
30005d4c:	e3a01000 	mov	r1, #0	; 0x0
30005d50:	e8bd8070 	ldmia	sp!, {r4, r5, r6, pc}
30005d54:	e374076a 	cmn	r4, #27787264	; 0x1a80000
30005d58:	d3a01000 	movle	r1, #0	; 0x0
30005d5c:	d2000102 	andle	r0, r0, #-2147483648	; 0x80000000
30005d60:	d8bd8070 	ldmleia	sp!, {r4, r5, r6, pc}
30005d64:	e1e049c4 	mvn	r4, r4, asr #19
30005d68:	e254401e 	subs	r4, r4, #30	; 0x1e
30005d6c:	aa00001b 	bge	30005de0 <__muldf3+0x244>
30005d70:	e294400c 	adds	r4, r4, #12	; 0xc
30005d74:	ca00000d 	bgt	30005db0 <__muldf3+0x214>
30005d78:	e2844014 	add	r4, r4, #20	; 0x14
30005d7c:	e2645020 	rsb	r5, r4, #32	; 0x20
30005d80:	e1a03511 	mov	r3, r1, lsl r5
30005d84:	e1a01431 	mov	r1, r1, lsr r4
30005d88:	e1811510 	orr	r1, r1, r0, lsl r5
30005d8c:	e1b00080 	movs	r0, r0, lsl #1
30005d90:	e1a00430 	mov	r0, r0, lsr r4
30005d94:	e1a00060 	mov	r0, r0, rrx
30005d98:	e0911fa3 	adds	r1, r1, r3, lsr #31
30005d9c:	e2a00000 	adc	r0, r0, #0	; 0x0
30005da0:	e33e0000 	teq	lr, #0	; 0x0
30005da4:	03330102 	teqeq	r3, #-2147483648	; 0x80000000
30005da8:	03c11001 	biceq	r1, r1, #1	; 0x1
30005dac:	e8bd8070 	ldmia	sp!, {r4, r5, r6, pc}
30005db0:	e264400c 	rsb	r4, r4, #12	; 0xc
30005db4:	e2645020 	rsb	r5, r4, #32	; 0x20
30005db8:	e1a03411 	mov	r3, r1, lsl r4
30005dbc:	e1a01531 	mov	r1, r1, lsr r5
30005dc0:	e1811410 	orr	r1, r1, r0, lsl r4
30005dc4:	e2000102 	and	r0, r0, #-2147483648	; 0x80000000
30005dc8:	e0911fa3 	adds	r1, r1, r3, lsr #31
30005dcc:	e2a00000 	adc	r0, r0, #0	; 0x0
30005dd0:	e33e0000 	teq	lr, #0	; 0x0
30005dd4:	03330102 	teqeq	r3, #-2147483648	; 0x80000000
30005dd8:	03c11001 	biceq	r1, r1, #1	; 0x1
30005ddc:	e8bd8070 	ldmia	sp!, {r4, r5, r6, pc}
30005de0:	e2645020 	rsb	r5, r4, #32	; 0x20
30005de4:	e1a06511 	mov	r6, r1, lsl r5
30005de8:	e1a03431 	mov	r3, r1, lsr r4
30005dec:	e1833510 	orr	r3, r3, r0, lsl r5
30005df0:	e1a01430 	mov	r1, r0, lsr r4
30005df4:	e2000102 	and	r0, r0, #-2147483648	; 0x80000000
30005df8:	e1c11430 	bic	r1, r1, r0, lsr r4
30005dfc:	e0811fa3 	add	r1, r1, r3, lsr #31
30005e00:	e196600e 	orrs	r6, r6, lr
30005e04:	03330102 	teqeq	r3, #-2147483648	; 0x80000000
30005e08:	03c11001 	biceq	r1, r1, #1	; 0x1
30005e0c:	e8bd8070 	ldmia	sp!, {r4, r5, r6, pc}
30005e10:	e3a0e000 	mov	lr, #0	; 0x0
30005e14:	e3340000 	teq	r4, #0	; 0x0
30005e18:	1a000008 	bne	30005e40 <__muldf3+0x2a4>
30005e1c:	e2006102 	and	r6, r0, #-2147483648	; 0x80000000
30005e20:	e1b01081 	movs	r1, r1, lsl #1
30005e24:	e0ae0080 	adc	r0, lr, r0, lsl #1
30005e28:	e3100601 	tst	r0, #1048576	; 0x100000
30005e2c:	02444702 	subeq	r4, r4, #524288	; 0x80000
30005e30:	0afffffa 	beq	30005e20 <__muldf3+0x284>
30005e34:	e1800006 	orr	r0, r0, r6
30005e38:	e3350000 	teq	r5, #0	; 0x0
30005e3c:	1affff64 	bne	30005bd4 <__muldf3+0x38>
30005e40:	e2026102 	and	r6, r2, #-2147483648	; 0x80000000
30005e44:	e1b03083 	movs	r3, r3, lsl #1
30005e48:	e0ae2082 	adc	r2, lr, r2, lsl #1
30005e4c:	e3120601 	tst	r2, #1048576	; 0x100000
30005e50:	02455601 	subeq	r5, r5, #1048576	; 0x100000
30005e54:	0afffffa 	beq	30005e44 <__muldf3+0x2a8>
30005e58:	e1822006 	orr	r2, r2, r6
30005e5c:	eaffff5c 	b	30005bd4 <__muldf3+0x38>
30005e60:	e1916080 	orrs	r6, r1, r0, lsl #1
30005e64:	11936082 	orrnes	r6, r3, r2, lsl #1
30005e68:	0a00000d 	beq	30005ea4 <__muldf3+0x308>
30005e6c:	e134000c 	teq	r4, ip
30005e70:	1a000001 	bne	30005e7c <__muldf3+0x2e0>
30005e74:	e1916600 	orrs	r6, r1, r0, lsl #12
30005e78:	1a000009 	bne	30005ea4 <__muldf3+0x308>
30005e7c:	e135000c 	teq	r5, ip
30005e80:	1a000001 	bne	30005e8c <__muldf3+0x2f0>
30005e84:	e1936602 	orrs	r6, r3, r2, lsl #12
30005e88:	1a000005 	bne	30005ea4 <__muldf3+0x308>
30005e8c:	e0200002 	eor	r0, r0, r2
30005e90:	e2000102 	and	r0, r0, #-2147483648	; 0x80000000
30005e94:	e380047f 	orr	r0, r0, #2130706432	; 0x7f000000
30005e98:	e380060f 	orr	r0, r0, #15728640	; 0xf00000
30005e9c:	e3a01000 	mov	r1, #0	; 0x0
30005ea0:	e8bd8070 	ldmia	sp!, {r4, r5, r6, pc}
30005ea4:	e3a0047f 	mov	r0, #2130706432	; 0x7f000000
30005ea8:	e380073e 	orr	r0, r0, #16252928	; 0xf80000
30005eac:	e8bd8070 	ldmia	sp!, {r4, r5, r6, pc}

30005eb0 <__divdf3>:
30005eb0:	e92d4070 	stmdb	sp!, {r4, r5, r6, lr}
30005eb4:	e3a0c47f 	mov	ip, #2130706432	; 0x7f000000
30005eb8:	e38cc60f 	orr	ip, ip, #15728640	; 0xf00000
30005ebc:	e000400c 	and	r4, r0, ip
30005ec0:	e002500c 	and	r5, r2, ip
30005ec4:	e134000c 	teq	r4, ip
30005ec8:	1135000c 	teqne	r5, ip
30005ecc:	11916080 	orrnes	r6, r1, r0, lsl #1
30005ed0:	11936082 	orrnes	r6, r3, r2, lsl #1
30005ed4:	0a00007e 	beq	300060d4 <__divdf3+0x224>
30005ed8:	e1b040a4 	movs	r4, r4, lsr #1
30005edc:	13350000 	teqne	r5, #0	; 0x0
30005ee0:	0a000067 	beq	30006084 <__divdf3+0x1d4>
30005ee4:	e04440c5 	sub	r4, r4, r5, asr #1
30005ee8:	e020e002 	eor	lr, r0, r2
30005eec:	e3a05201 	mov	r5, #268435456	; 0x10000000
30005ef0:	e1a02602 	mov	r2, r2, lsl #12
30005ef4:	e1852222 	orr	r2, r5, r2, lsr #4
30005ef8:	e1822c23 	orr	r2, r2, r3, lsr #24
30005efc:	e1b03403 	movs	r3, r3, lsl #8
30005f00:	e1a00600 	mov	r0, r0, lsl #12
30005f04:	01320005 	teqeq	r2, r5
30005f08:	0a00004d 	beq	30006044 <__divdf3+0x194>
30005f0c:	e1855220 	orr	r5, r5, r0, lsr #4
30005f10:	e1855c21 	orr	r5, r5, r1, lsr #24
30005f14:	e1a06401 	mov	r6, r1, lsl #8
30005f18:	e20e0102 	and	r0, lr, #-2147483648	; 0x80000000
30005f1c:	e1550002 	cmp	r5, r2
30005f20:	01560003 	cmpeq	r6, r3
30005f24:	2a000002 	bcs	30005f34 <__divdf3+0x84>
30005f28:	e2444702 	sub	r4, r4, #524288	; 0x80000
30005f2c:	e1b020a2 	movs	r2, r2, lsr #1
30005f30:	e1a03063 	mov	r3, r3, rrx
30005f34:	e284441f 	add	r4, r4, #520093696	; 0x1f000000
30005f38:	e284473e 	add	r4, r4, #16252928	; 0xf80000
30005f3c:	e374076a 	cmn	r4, #27787264	; 0x1a80000
30005f40:	daffff80 	ble	30005d48 <__muldf3+0x1ac>
30005f44:	e15400ac 	cmp	r4, ip, lsr #1
30005f48:	aaffffd0 	bge	30005e90 <__muldf3+0x2f4>
30005f4c:	e0566003 	subs	r6, r6, r3
30005f50:	e0c55002 	sbc	r5, r5, r2
30005f54:	e1b020a2 	movs	r2, r2, lsr #1
30005f58:	e1a03063 	mov	r3, r3, rrx
30005f5c:	e3a01601 	mov	r1, #1048576	; 0x100000
30005f60:	e3a0c702 	mov	ip, #524288	; 0x80000
30005f64:	e056e003 	subs	lr, r6, r3
30005f68:	e0d5e002 	sbcs	lr, r5, r2
30005f6c:	20466003 	subcs	r6, r6, r3
30005f70:	21a0500e 	movcs	r5, lr
30005f74:	2181100c 	orrcs	r1, r1, ip
30005f78:	e1b020a2 	movs	r2, r2, lsr #1
30005f7c:	e1a03063 	mov	r3, r3, rrx
30005f80:	e056e003 	subs	lr, r6, r3
30005f84:	e0d5e002 	sbcs	lr, r5, r2
30005f88:	20466003 	subcs	r6, r6, r3
30005f8c:	21a0500e 	movcs	r5, lr
30005f90:	218110ac 	orrcs	r1, r1, ip, lsr #1
30005f94:	e1b020a2 	movs	r2, r2, lsr #1
30005f98:	e1a03063 	mov	r3, r3, rrx
30005f9c:	e056e003 	subs	lr, r6, r3
30005fa0:	e0d5e002 	sbcs	lr, r5, r2
30005fa4:	20466003 	subcs	r6, r6, r3
30005fa8:	21a0500e 	movcs	r5, lr
30005fac:	2181112c 	orrcs	r1, r1, ip, lsr #2
30005fb0:	e1b020a2 	movs	r2, r2, lsr #1
30005fb4:	e1a03063 	mov	r3, r3, rrx
30005fb8:	e056e003 	subs	lr, r6, r3
30005fbc:	e0d5e002 	sbcs	lr, r5, r2
30005fc0:	20466003 	subcs	r6, r6, r3
30005fc4:	21a0500e 	movcs	r5, lr
30005fc8:	218111ac 	orrcs	r1, r1, ip, lsr #3
30005fcc:	e195e006 	orrs	lr, r5, r6
30005fd0:	0a00000d 	beq	3000600c <__divdf3+0x15c>
30005fd4:	e1a05205 	mov	r5, r5, lsl #4
30005fd8:	e1855e26 	orr	r5, r5, r6, lsr #28
30005fdc:	e1a06206 	mov	r6, r6, lsl #4
30005fe0:	e1a02182 	mov	r2, r2, lsl #3
30005fe4:	e1822ea3 	orr	r2, r2, r3, lsr #29
30005fe8:	e1a03183 	mov	r3, r3, lsl #3
30005fec:	e1b0c22c 	movs	ip, ip, lsr #4
30005ff0:	1affffdb 	bne	30005f64 <__divdf3+0xb4>
30005ff4:	e3100601 	tst	r0, #1048576	; 0x100000
30005ff8:	1a000006 	bne	30006018 <__divdf3+0x168>
30005ffc:	e1800001 	orr	r0, r0, r1
30006000:	e3a01000 	mov	r1, #0	; 0x0
30006004:	e3a0c102 	mov	ip, #-2147483648	; 0x80000000
30006008:	eaffffd5 	b	30005f64 <__divdf3+0xb4>
3000600c:	e3100601 	tst	r0, #1048576	; 0x100000
30006010:	01800001 	orreq	r0, r0, r1
30006014:	03a01000 	moveq	r1, #0	; 0x0
30006018:	e3540000 	cmp	r4, #0	; 0x0
3000601c:	da000016 	ble	3000607c <__divdf3+0x1cc>
30006020:	e055c002 	subs	ip, r5, r2
30006024:	0056c003 	subeqs	ip, r6, r3
30006028:	e2b11000 	adcs	r1, r1, #0	; 0x0
3000602c:	e2a00000 	adc	r0, r0, #0	; 0x0
30006030:	e33c0000 	teq	ip, #0	; 0x0
30006034:	03c11001 	biceq	r1, r1, #1	; 0x1
30006038:	e3c00601 	bic	r0, r0, #1048576	; 0x100000
3000603c:	e1800084 	orr	r0, r0, r4, lsl #1
30006040:	e8bd8070 	ldmia	sp!, {r4, r5, r6, pc}
30006044:	e20ee102 	and	lr, lr, #-2147483648	; 0x80000000
30006048:	e18e0620 	orr	r0, lr, r0, lsr #12
3000604c:	e284441f 	add	r4, r4, #520093696	; 0x1f000000
30006050:	e284473e 	add	r4, r4, #16252928	; 0xf80000
30006054:	e15400ac 	cmp	r4, ip, lsr #1
30006058:	aaffff8c 	bge	30005e90 <__muldf3+0x2f4>
3000605c:	e3540000 	cmp	r4, #0	; 0x0
30006060:	c1800084 	orrgt	r0, r0, r4, lsl #1
30006064:	c8bd8070 	ldmgtia	sp!, {r4, r5, r6, pc}
30006068:	e374076a 	cmn	r4, #27787264	; 0x1a80000
3000606c:	daffff35 	ble	30005d48 <__muldf3+0x1ac>
30006070:	e3800601 	orr	r0, r0, #1048576	; 0x100000
30006074:	e3a0e000 	mov	lr, #0	; 0x0
30006078:	eaffff39 	b	30005d64 <__muldf3+0x1c8>
3000607c:	e185e006 	orr	lr, r5, r6
30006080:	eaffff37 	b	30005d64 <__muldf3+0x1c8>
30006084:	e3a0e000 	mov	lr, #0	; 0x0
30006088:	e3340000 	teq	r4, #0	; 0x0
3000608c:	1a000008 	bne	300060b4 <__divdf3+0x204>
30006090:	e2006102 	and	r6, r0, #-2147483648	; 0x80000000
30006094:	e1b01081 	movs	r1, r1, lsl #1
30006098:	e0ae0080 	adc	r0, lr, r0, lsl #1
3000609c:	e3100601 	tst	r0, #1048576	; 0x100000
300060a0:	02444702 	subeq	r4, r4, #524288	; 0x80000
300060a4:	0afffffa 	beq	30006094 <__divdf3+0x1e4>
300060a8:	e1800006 	orr	r0, r0, r6
300060ac:	e3350000 	teq	r5, #0	; 0x0
300060b0:	1affff8b 	bne	30005ee4 <__divdf3+0x34>
300060b4:	e2026102 	and	r6, r2, #-2147483648	; 0x80000000
300060b8:	e1b03083 	movs	r3, r3, lsl #1
300060bc:	e0ae2082 	adc	r2, lr, r2, lsl #1
300060c0:	e3120601 	tst	r2, #1048576	; 0x100000
300060c4:	02455601 	subeq	r5, r5, #1048576	; 0x100000
300060c8:	0afffffa 	beq	300060b8 <__divdf3+0x208>
300060cc:	e1822006 	orr	r2, r2, r6
300060d0:	eaffff83 	b	30005ee4 <__divdf3+0x34>
300060d4:	e134000c 	teq	r4, ip
300060d8:	0135000c 	teqeq	r5, ip
300060dc:	0affff70 	beq	30005ea4 <__muldf3+0x308>
300060e0:	e134000c 	teq	r4, ip
300060e4:	1a000002 	bne	300060f4 <__divdf3+0x244>
300060e8:	e1914600 	orrs	r4, r1, r0, lsl #12
300060ec:	1affff6c 	bne	30005ea4 <__muldf3+0x308>
300060f0:	eaffff65 	b	30005e8c <__muldf3+0x2f0>
300060f4:	e135000c 	teq	r5, ip
300060f8:	1a000002 	bne	30006108 <__divdf3+0x258>
300060fc:	e1935602 	orrs	r5, r3, r2, lsl #12
30006100:	1affff67 	bne	30005ea4 <__muldf3+0x308>
30006104:	eaffff0e 	b	30005d44 <__muldf3+0x1a8>
30006108:	e1914080 	orrs	r4, r1, r0, lsl #1
3000610c:	1affff5e 	bne	30005e8c <__muldf3+0x2f0>
30006110:	e1935082 	orrs	r5, r3, r2, lsl #1
30006114:	1affff0a 	bne	30005d44 <__muldf3+0x1a8>
30006118:	eaffff61 	b	30005ea4 <__muldf3+0x308>

3000611c <__fixdfsi>:
3000611c:	e191c080 	orrs	ip, r1, r0, lsl #1
30006120:	0a000014 	beq	30006178 <__fixdfsi+0x5c>
30006124:	e1a03063 	mov	r3, r3, rrx
30006128:	e3a0c47f 	mov	ip, #2130706432	; 0x7f000000
3000612c:	e38cc60f 	orr	ip, ip, #15728640	; 0xf00000
30006130:	e000200c 	and	r2, r0, ip
30006134:	e132000c 	teq	r2, ip
30006138:	0a000010 	beq	30006180 <__fixdfsi+0x64>
3000613c:	e3ccc101 	bic	ip, ip, #1073741824	; 0x40000000
30006140:	e152000c 	cmp	r2, ip
30006144:	3a00000b 	bcc	30006178 <__fixdfsi+0x5c>
30006148:	e28cc61f 	add	ip, ip, #32505856	; 0x1f00000
3000614c:	e152000c 	cmp	r2, ip
30006150:	2a00000c 	bcs	30006188 <__fixdfsi+0x6c>
30006154:	e062200c 	rsb	r2, r2, ip
30006158:	e1a0c580 	mov	ip, r0, lsl #11
3000615c:	e38cc102 	orr	ip, ip, #-2147483648	; 0x80000000
30006160:	e18ccaa1 	orr	ip, ip, r1, lsr #21
30006164:	e1a02a22 	mov	r2, r2, lsr #20
30006168:	e3130102 	tst	r3, #-2147483648	; 0x80000000
3000616c:	e1a0023c 	mov	r0, ip, lsr r2
30006170:	12600000 	rsbne	r0, r0, #0	; 0x0
30006174:	e1a0f00e 	mov	pc, lr
30006178:	e3a00000 	mov	r0, #0	; 0x0
3000617c:	e1a0f00e 	mov	pc, lr
30006180:	e1911600 	orrs	r1, r1, r0, lsl #12
30006184:	1a000002 	bne	30006194 <__fixdfsi+0x78>
30006188:	e2130102 	ands	r0, r3, #-2147483648	; 0x80000000
3000618c:	03e00102 	mvneq	r0, #-2147483648	; 0x80000000
30006190:	e1a0f00e 	mov	pc, lr
30006194:	e3a00000 	mov	r0, #0	; 0x0
30006198:	e1a0f00e 	mov	pc, lr
Disassembly of section .rodata:

3000619c <fontdata_8x16-0x2bc>:
3000619c:	656b616d 	strvsb	r6, [fp, #-365]!
300061a0:	20202072 	eorcs	r2, r0, r2, ror r0
300061a4:	20206469 	eorcs	r6, r0, r9, ror #8
300061a8:	7830203d 	ldmvcda	r0!, {r0, r2, r3, r4, r5, sp}
300061ac:	0d0a7825 	stceq	8, cr7, [sl, #-148]
300061b0:	00000000 	andeq	r0, r0, r0
300061b4:	69766564 	ldmvsdb	r6!, {r2, r5, r6, r8, sl, sp, lr}^
300061b8:	20206563 	eorcs	r6, r0, r3, ror #10
300061bc:	20206469 	eorcs	r6, r0, r9, ror #8
300061c0:	7830203d 	ldmvcda	r0!, {r0, r2, r3, r4, r5, sp}
300061c4:	0d0a7825 	stceq	8, cr7, [sl, #-148]
300061c8:	00000000 	andeq	r0, r0, r0
300061cc:	20647233 	rsbcs	r7, r4, r3, lsr r2
300061d0:	65747962 	ldrvsb	r7, [r4, #-2402]!
300061d4:	20202020 	eorcs	r2, r0, r0, lsr #32
300061d8:	7830203d 	ldmvcda	r0!, {r0, r2, r3, r4, r5, sp}
300061dc:	0d0a7825 	stceq	8, cr7, [sl, #-148]
300061e0:	00000000 	andeq	r0, r0, r0
300061e4:	20687434 	rsbcs	r7, r8, r4, lsr r4
300061e8:	65747962 	ldrvsb	r7, [r4, #-2402]!
300061ec:	20202020 	eorcs	r2, r0, r0, lsr #32
300061f0:	7830203d 	ldmvcda	r0!, {r0, r2, r3, r4, r5, sp}
300061f4:	0d0a7825 	stceq	8, cr7, [sl, #-148]
300061f8:	00000000 	andeq	r0, r0, r0
300061fc:	65676170 	strvsb	r6, [r7, #-368]!
30006200:	69732020 	ldmvsdb	r3!, {r5, sp}^
30006204:	2020657a 	eorcs	r6, r0, sl, ror r5
30006208:	6425203d 	strvst	r2, [r5], #-61
3000620c:	0a626b20 	beq	318a0e94 <end+0x1899444>
30006210:	0000000d 	andeq	r0, r0, sp
30006214:	636f6c62 	cmnvs	pc, #25088	; 0x6200
30006218:	6973206b 	ldmvsdb	r3!, {r0, r1, r3, r5, r6, sp}^
3000621c:	2020657a 	eorcs	r6, r0, sl, ror r5
30006220:	6425203d 	strvst	r2, [r5], #-61
30006224:	0a626b20 	beq	318a0eac <end+0x189945c>
30006228:	0000000d 	andeq	r0, r0, sp
3000622c:	20687435 	rsbcs	r7, r8, r5, lsr r4
30006230:	65747962 	ldrvsb	r7, [r4, #-2402]!
30006234:	20202020 	eorcs	r2, r0, r0, lsr #32
30006238:	7830203d 	ldmvcda	r0!, {r0, r2, r3, r4, r5, sp}
3000623c:	0d0a7825 	stceq	8, cr7, [sl, #-148]
30006240:	00000000 	andeq	r0, r0, r0
30006244:	646e616e 	strvsbt	r6, [lr], #-366
30006248:	6172655f 	cmnvs	r2, pc, asr r5
3000624c:	65206573 	strvs	r6, [r0, #-1395]!
30006250:	202c7272 	eorcs	r7, ip, r2, ror r2
30006254:	72646461 	rsbvc	r6, r4, #1627389952	; 0x61000000
30006258:	20736920 	rsbcss	r6, r3, r0, lsr #18
3000625c:	20746f6e 	rsbcss	r6, r4, lr, ror #30
30006260:	636f6c62 	cmnvs	pc, #25088	; 0x6200
30006264:	6c61206b 	stcvsl	0, cr2, [r1], #-428
30006268:	0a6e6769 	beq	31ba0014 <end+0x1b985c4>
3000626c:	0000000d 	andeq	r0, r0, sp
30006270:	646e616e 	strvsbt	r6, [lr], #-366
30006274:	6172655f 	cmnvs	r2, pc, asr r5
30006278:	65206573 	strvs	r6, [r0, #-1395]!
3000627c:	202c7272 	eorcs	r7, ip, r2, ror r2
30006280:	206e656c 	rsbcs	r6, lr, ip, ror #10
30006284:	6e207369 	cdpvs	3, 2, cr7, cr0, cr9, {3}
30006288:	6220746f 	eorvs	r7, r0, #1862270976	; 0x6f000000
3000628c:	6b636f6c 	blvs	318e2044 <end+0x18da5f4>
30006290:	696c6120 	stmvsdb	ip!, {r5, r8, sp, lr}^
30006294:	0d0a6e67 	stceq	14, cr6, [sl, #-412]
30006298:	00000000 	andeq	r0, r0, r0
3000629c:	65746e45 	ldrvsb	r6, [r4, #-3653]!
300062a0:	68742072 	ldmvsda	r4!, {r1, r4, r5, r6, sp}^
300062a4:	64612065 	strvsbt	r2, [r1], #-101
300062a8:	73657264 	cmnvc	r5, #1073741830	; 0x40000006
300062ac:	6f742073 	swivs	0x00742073
300062b0:	61657220 	cmnvs	r5, r0, lsr #4
300062b4:	00203a64 	eoreq	r3, r0, r4, ror #20
300062b8:	61746144 	cmnvs	r4, r4, asr #2
300062bc:	0a203a20 	beq	30814b44 <end+0x80d0f4>
300062c0:	0000000d 	andeq	r0, r0, sp
300062c4:	78323025 	ldmvcda	r2!, {r0, r2, r5, ip, sp}
300062c8:	00000020 	andeq	r0, r0, r0, lsr #32
300062cc:	3b202020 	blcc	3080e354 <end+0x806904>
300062d0:	00000020 	andeq	r0, r0, r0, lsr #32
300062d4:	00000d0a 	andeq	r0, r0, sl, lsl #26
300062d8:	65746e45 	ldrvsb	r6, [r4, #-3653]!
300062dc:	68742072 	ldmvsda	r4!, {r1, r4, r5, r6, sp}^
300062e0:	64612065 	strvsbt	r2, [r1], #-101
300062e4:	73657264 	cmnvc	r5, #1073741830	; 0x40000006
300062e8:	666f2073 	undefined
300062ec:	63657320 	cmnvs	r5, #-2147483648	; 0x80000000
300062f0:	20726f74 	rsbcss	r6, r2, r4, ror pc
300062f4:	65206f74 	strvs	r6, [r0, #-3956]!
300062f8:	65736172 	ldrvsb	r6, [r3, #-370]!
300062fc:	0000203a 	andeq	r2, r0, sl, lsr r0
30006300:	73617265 	cmnvc	r1, #1342177286	; 0x50000006
30006304:	20676e69 	rsbcs	r6, r7, r9, ror #28
30006308:	0a2e2e2e 	beq	30b91bc8 <end+0xb8a178>
3000630c:	0000000d 	andeq	r0, r0, sp
30006310:	65746e45 	ldrvsb	r6, [r4, #-3653]!
30006314:	68742072 	ldmvsda	r4!, {r1, r4, r5, r6, sp}^
30006318:	64612065 	strvsbt	r2, [r1], #-101
3000631c:	73657264 	cmnvc	r5, #1073741830	; 0x40000006
30006320:	666f2073 	undefined
30006324:	63657320 	cmnvs	r5, #-2147483648	; 0x80000000
30006328:	20726f74 	rsbcss	r6, r2, r4, ror pc
3000632c:	77206f74 	undefined
30006330:	65746972 	ldrvsb	r6, [r4, #-2418]!
30006334:	0000203a 	andeq	r2, r0, sl, lsr r0
30006338:	65746e45 	ldrvsb	r6, [r4, #-3653]!
3000633c:	68742072 	ldmvsda	r4!, {r1, r4, r5, r6, sp}^
30006340:	74732065 	ldrvcbt	r2, [r3], #-101
30006344:	676e6972 	undefined
30006348:	206f7420 	rsbcs	r7, pc, r0, lsr #8
3000634c:	74697277 	strvcbt	r7, [r9], #-631
30006350:	00203a65 	eoreq	r3, r0, r5, ror #20
30006354:	74697277 	strvcbt	r7, [r9], #-631
30006358:	20676e69 	rsbcs	r6, r7, r9, ror #28
3000635c:	0a2e2e2e 	beq	30b91c1c <end+0xb8a1cc>
30006360:	0000000d 	andeq	r0, r0, sp
30006364:	2d2d2d2d 	stccs	13, cr2, [sp, #-180]!
30006368:	2d2d2d2d 	stccs	13, cr2, [sp, #-180]!
3000636c:	2d2d2d2d 	stccs	13, cr2, [sp, #-180]!
30006370:	2d2d2d2d 	stccs	13, cr2, [sp, #-180]!
30006374:	2d2d2d2d 	stccs	13, cr2, [sp, #-180]!
30006378:	2d2d2d2d 	stccs	13, cr2, [sp, #-180]!
3000637c:	2d2d2d2d 	stccs	13, cr2, [sp, #-180]!
30006380:	0a0d2d2d 	beq	3035183c <end+0x349dec>
30006384:	00000000 	andeq	r0, r0, r0
30006388:	205d735b 	subcss	r7, sp, fp, asr r3
3000638c:	6e616353 	mcrvs	3, 3, r6, cr1, cr3, {2}
30006390:	6e616e20 	cdpvs	14, 6, cr6, cr1, cr0, {1}
30006394:	6c662064 	stcvsl	0, cr2, [r6], #-400
30006398:	0a687361 	beq	31a23124 <end+0x1a1b6d4>
3000639c:	0000000d 	andeq	r0, r0, sp
300063a0:	205d655b 	subcss	r6, sp, fp, asr r5
300063a4:	73617245 	cmnvc	r1, #1342177284	; 0x50000004
300063a8:	616e2065 	cmnvs	lr, r5, rrx
300063ac:	6620646e 	strvst	r6, [r0], -lr, ror #8
300063b0:	6873616c 	ldmvsda	r3!, {r2, r3, r5, r6, r8, sp, lr}^
300063b4:	00000d0a 	andeq	r0, r0, sl, lsl #26
300063b8:	205d775b 	subcss	r7, sp, fp, asr r7
300063bc:	74697257 	strvcbt	r7, [r9], #-599
300063c0:	616e2065 	cmnvs	lr, r5, rrx
300063c4:	6620646e 	strvst	r6, [r0], -lr, ror #8
300063c8:	6873616c 	ldmvsda	r3!, {r2, r3, r5, r6, r8, sp, lr}^
300063cc:	00000d0a 	andeq	r0, r0, sl, lsl #26
300063d0:	205d725b 	subcss	r7, sp, fp, asr r2
300063d4:	64616552 	strvsbt	r6, [r1], #-1362
300063d8:	6e616e20 	cdpvs	14, 6, cr6, cr1, cr0, {1}
300063dc:	6c662064 	stcvsl	0, cr2, [r6], #-400
300063e0:	0a687361 	beq	31a2316c <end+0x1a1b71c>
300063e4:	0000000d 	andeq	r0, r0, sp
300063e8:	205d715b 	subcss	r7, sp, fp, asr r1
300063ec:	74697571 	strvcbt	r7, [r9], #-1393
300063f0:	00000d0a 	andeq	r0, r0, sl, lsl #26
300063f4:	65746e45 	ldrvsb	r6, [r4, #-3653]!
300063f8:	65732072 	ldrvsb	r2, [r3, #-114]!
300063fc:	7463656c 	strvcbt	r6, [r3], #-1388
30006400:	3a6e6f69 	bcc	31ba21ac <end+0x1b9a75c>
30006404:	00000020 	andeq	r0, r0, r0, lsr #32
30006408:	0d0a6325 	stceq	3, cr6, [sl, #-148]
3000640c:	00000000 	andeq	r0, r0, r0
30006410:	32633373 	rsbcc	r3, r3, #-872415231	; 0xcc000001
30006414:	00303434 	eoreqs	r3, r0, r4, lsr r4
30006418:	2e777777 	mrccs	7, 3, r7, cr7, cr7, {3}
3000641c:	61303031 	teqvs	r0, r1, lsr r0
30006420:	6e2e6b73 	mcrvs	11, 1, r6, cr14, cr3, {3}
30006424:	0d0a7465 	cfstrseq	mvf7, [sl, #-404]
30006428:	61303031 	teqvs	r0, r1, lsr r0
3000642c:	742e6b73 	strvct	r6, [lr], #-2931
30006430:	61626f61 	cmnvs	r2, r1, ror #30
30006434:	6f632e6f 	swivs	0x00632e6f
30006438:	0000006d 	andeq	r0, r0, sp, rrx
3000643c:	5f64636c 	swipl	0x0064636c
30006440:	00332e34 	eoreqs	r2, r3, r4, lsr lr
30006444:	00303030 	eoreqs	r3, r0, r0, lsr r0
30006448:	5f64636c 	swipl	0x0064636c
3000644c:	00332e34 	eoreqs	r2, r3, r4, lsr lr
30006450:	32633373 	rsbcc	r3, r3, #-872415231	; 0xcc000001
30006454:	00303434 	eoreqs	r3, r0, r4, lsr r4

30006458 <fontdata_8x16>:
	...
30006468:	817e0000 	cmnhi	lr, r0
3000646c:	bd8181a5 	stfltd	f0, [r1, #660]
30006470:	7e818199 	mcrvc	1, 4, r8, cr1, cr9, {4}
30006474:	00000000 	andeq	r0, r0, r0
30006478:	ff7e0000 	swinv	0x007e0000
3000647c:	c3ffffdb 	mvngts	pc, #876	; 0x36c
30006480:	7effffe7 	cdpvc	15, 15, cr15, cr15, cr7, {7}
	...
3000648c:	fefefe6c 	cdp2	14, 15, cr15, cr14, cr12, {3}
30006490:	10387cfe 	ldrnesh	r7, [r8], -lr
	...
3000649c:	fe7c3810 	mrc2	8, 3, r3, cr12, cr0, {0}
300064a0:	0010387c 	andeqs	r3, r0, ip, ror r8
300064a4:	00000000 	andeq	r0, r0, r0
300064a8:	18000000 	stmneda	r0, {}
300064ac:	e7e73c3c 	undefined
300064b0:	3c1818e7 	ldccc	8, cr1, [r8], {231}
300064b4:	00000000 	andeq	r0, r0, r0
300064b8:	18000000 	stmneda	r0, {}
300064bc:	ffff7e3c 	swinv	0x00ff7e3c
300064c0:	3c18187e 	ldccc	8, cr1, [r8], {126}
	...
300064cc:	3c180000 	ldccc	0, cr0, [r8], {0}
300064d0:	0000183c 	andeq	r1, r0, ip, lsr r8
300064d4:	00000000 	andeq	r0, r0, r0
300064d8:	ffffffff 	swinv	0x00ffffff
300064dc:	c3e7ffff 	mvngt	pc, #1020	; 0x3fc
300064e0:	ffffe7c3 	swinv	0x00ffe7c3
300064e4:	ffffffff 	swinv	0x00ffffff
300064e8:	00000000 	andeq	r0, r0, r0
300064ec:	42663c00 	rsbmi	r3, r6, #0	; 0x0
300064f0:	003c6642 	eoreqs	r6, ip, r2, asr #12
300064f4:	00000000 	andeq	r0, r0, r0
300064f8:	ffffffff 	swinv	0x00ffffff
300064fc:	bd99c3ff 	ldclt	3, cr12, [r9, #1020]
30006500:	ffc399bd 	swinv	0x00c399bd
30006504:	ffffffff 	swinv	0x00ffffff
30006508:	0e1e0000 	wxoreq	wr0, wr14, wr0
3000650c:	cc78321a 	lfmgt	f3, 2, [r8], #-104
30006510:	78cccccc 	stmvcia	ip, {r2, r3, r6, r7, sl, fp, lr, pc}^
30006514:	00000000 	andeq	r0, r0, r0
30006518:	663c0000 	ldrvst	r0, [ip], -r0
3000651c:	3c666666 	stcccl	6, cr6, [r6], #-408
30006520:	18187e18 	ldmneda	r8, {r3, r4, r9, sl, fp, ip, sp, lr}
30006524:	00000000 	andeq	r0, r0, r0
30006528:	333f0000 	teqcc	pc, #0	; 0x0
3000652c:	3030303f 	eorccs	r3, r0, pc, lsr r0
30006530:	e0f07030 	rscs	r7, r0, r0, lsr r0
30006534:	00000000 	andeq	r0, r0, r0
30006538:	637f0000 	cmnvs	pc, #0	; 0x0
3000653c:	6363637f 	cmnvs	r3, #-67108863	; 0xfc000001
30006540:	e6e76763 	strbt	r6, [r7], r3, ror #14
30006544:	000000c0 	andeq	r0, r0, r0, asr #1
30006548:	18000000 	stmneda	r0, {}
3000654c:	e73cdb18 	undefined
30006550:	1818db3c 	ldmneda	r8, {r2, r3, r4, r5, r8, r9, fp, ip, lr, pc}
30006554:	00000000 	andeq	r0, r0, r0
30006558:	e0c08000 	sbc	r8, r0, r0
3000655c:	f8fef8f0 	ldmnvia	lr!, {r4, r5, r6, r7, fp, ip, sp, lr, pc}^
30006560:	80c0e0f0 	strhid	lr, [r0]
30006564:	00000000 	andeq	r0, r0, r0
30006568:	0e060200 	cdpeq	2, 0, cr0, cr6, cr0, {0}
3000656c:	3efe3e1e 	mrccc	14, 7, r3, cr14, cr14, {0}
30006570:	02060e1e 	andeq	r0, r6, #480	; 0x1e0
30006574:	00000000 	andeq	r0, r0, r0
30006578:	3c180000 	ldccc	0, cr0, [r8], {0}
3000657c:	1818187e 	ldmneda	r8, {r1, r2, r3, r4, r5, r6, fp, ip}
30006580:	00183c7e 	andeqs	r3, r8, lr, ror ip
30006584:	00000000 	andeq	r0, r0, r0
30006588:	66660000 	strvsbt	r0, [r6], -r0
3000658c:	66666666 	strvsbt	r6, [r6], -r6, ror #12
30006590:	66660066 	strvsbt	r0, [r6], -r6, rrx
30006594:	00000000 	andeq	r0, r0, r0
30006598:	db7f0000 	blle	31fc65a0 <end+0x1fbeb50>
3000659c:	1b7bdbdb 	blne	31efd510 <end+0x1ef5ac0>
300065a0:	1b1b1b1b 	blne	306cd214 <end+0x6c57c4>
300065a4:	00000000 	andeq	r0, r0, r0
300065a8:	60c67c00 	sbcvs	r7, r6, r0, lsl #24
300065ac:	c6c66c38 	undefined
300065b0:	c60c386c 	strgt	r3, [ip], -ip, ror #16
300065b4:	0000007c 	andeq	r0, r0, ip, ror r0
	...
300065c0:	fefefefe 	mrc2	14, 7, pc, cr14, cr14, {7}
300065c4:	00000000 	andeq	r0, r0, r0
300065c8:	3c180000 	ldccc	0, cr0, [r8], {0}
300065cc:	1818187e 	ldmneda	r8, {r1, r2, r3, r4, r5, r6, fp, ip}
300065d0:	7e183c7e 	mrcvc	12, 0, r3, cr8, cr14, {3}
300065d4:	00000000 	andeq	r0, r0, r0
300065d8:	3c180000 	ldccc	0, cr0, [r8], {0}
300065dc:	1818187e 	ldmneda	r8, {r1, r2, r3, r4, r5, r6, fp, ip}
300065e0:	18181818 	ldmneda	r8, {r3, r4, fp, ip}
300065e4:	00000000 	andeq	r0, r0, r0
300065e8:	18180000 	ldmneda	r8, {}
300065ec:	18181818 	ldmneda	r8, {r3, r4, fp, ip}
300065f0:	183c7e18 	ldmneda	ip!, {r3, r4, r9, sl, fp, ip, sp, lr}
	...
300065fc:	fe0c1800 	cdp2	8, 0, cr1, cr12, cr0, {0}
30006600:	0000180c 	andeq	r1, r0, ip, lsl #16
	...
3000660c:	fe603000 	cdp2	0, 6, cr3, cr0, cr0, {0}
30006610:	00003060 	andeq	r3, r0, r0, rrx
	...
3000661c:	c0c00000 	sbcgt	r0, r0, r0
30006620:	0000fec0 	andeq	pc, r0, r0, asr #29
	...
3000662c:	fe6c2800 	cdp2	8, 6, cr2, cr12, cr0, {0}
30006630:	0000286c 	andeq	r2, r0, ip, ror #16
	...
3000663c:	7c383810 	ldcvc	8, cr3, [r8], #-64
30006640:	00fefe7c 	rsceqs	pc, lr, ip, ror lr
	...
3000664c:	7c7cfefe 	ldcvcl	14, cr15, [ip], #-1016
30006650:	00103838 	andeqs	r3, r0, r8, lsr r8
	...
30006668:	3c180000 	ldccc	0, cr0, [r8], {0}
3000666c:	18183c3c 	ldmneda	r8, {r2, r3, r4, r5, sl, fp, ip, sp}
30006670:	18180018 	ldmneda	r8, {r3, r4}
30006674:	00000000 	andeq	r0, r0, r0
30006678:	66666600 	strvsbt	r6, [r6], -r0, lsl #12
3000667c:	00000024 	andeq	r0, r0, r4, lsr #32
	...
30006688:	6c000000 	stcvs	0, cr0, [r0], {0}
3000668c:	6c6cfe6c 	stcvsl	14, cr15, [ip], #-432
30006690:	6c6cfe6c 	stcvsl	14, cr15, [ip], #-432
30006694:	00000000 	andeq	r0, r0, r0
30006698:	c67c1818 	undefined
3000669c:	067cc0c2 	ldreqbt	ip, [ip], -r2, asr #1
300066a0:	7cc68606 	stcvcl	6, cr8, [r6], {6}
300066a4:	00001818 	andeq	r1, r0, r8, lsl r8
300066a8:	00000000 	andeq	r0, r0, r0
300066ac:	180cc6c2 	stmneda	ip, {r1, r6, r7, r9, sl, lr, pc}
300066b0:	86c66030 	undefined
300066b4:	00000000 	andeq	r0, r0, r0
300066b8:	6c380000 	ldcvs	0, cr0, [r8]
300066bc:	dc76386c 	ldclel	8, cr3, [r6], #-432
300066c0:	76cccccc 	strvcb	ip, [ip], ip, asr #25
300066c4:	00000000 	andeq	r0, r0, r0
300066c8:	30303000 	eorccs	r3, r0, r0
300066cc:	00000060 	andeq	r0, r0, r0, rrx
	...
300066d8:	180c0000 	stmneda	ip, {}
300066dc:	30303030 	eorccs	r3, r0, r0, lsr r0
300066e0:	0c183030 	ldceq	0, cr3, [r8], {48}
300066e4:	00000000 	andeq	r0, r0, r0
300066e8:	18300000 	ldmneda	r0!, {}
300066ec:	0c0c0c0c 	stceq	12, cr0, [ip], {12}
300066f0:	30180c0c 	andccs	r0, r8, ip, lsl #24
	...
300066fc:	ff3c6600 	swinv	0x003c6600
30006700:	0000663c 	andeq	r6, r0, ip, lsr r6
	...
3000670c:	7e181800 	cdpvc	8, 1, cr1, cr8, cr0, {0}
30006710:	00001818 	andeq	r1, r0, r8, lsl r8
	...
30006720:	18181800 	ldmneda	r8, {fp, ip}
30006724:	00000030 	andeq	r0, r0, r0, lsr r0
30006728:	00000000 	andeq	r0, r0, r0
3000672c:	fe000000 	cdp2	0, 0, cr0, cr0, cr0, {0}
	...
30006740:	18180000 	ldmneda	r8, {}
	...
3000674c:	180c0602 	stmneda	ip, {r1, r9, sl}
30006750:	80c06030 	sbchi	r6, r0, r0, lsr r0
30006754:	00000000 	andeq	r0, r0, r0
30006758:	6c380000 	ldcvs	0, cr0, [r8]
3000675c:	d6d6c6c6 	ldrleb	ip, [r6], r6, asr #13
30006760:	386cc6c6 	stmccda	ip!, {r1, r2, r6, r7, r9, sl, lr, pc}^
30006764:	00000000 	andeq	r0, r0, r0
30006768:	38180000 	ldmccda	r8, {}
3000676c:	18181878 	ldmneda	r8, {r3, r4, r5, r6, fp, ip}
30006770:	7e181818 	mrcvc	8, 0, r1, cr8, cr8, {0}
30006774:	00000000 	andeq	r0, r0, r0
30006778:	c67c0000 	ldrgtbt	r0, [ip], -r0
3000677c:	30180c06 	andccs	r0, r8, r6, lsl #24
30006780:	fec6c060 	cdp2	0, 12, cr12, cr6, cr0, {3}
30006784:	00000000 	andeq	r0, r0, r0
30006788:	c67c0000 	ldrgtbt	r0, [ip], -r0
3000678c:	063c0606 	ldreqt	r0, [ip], -r6, lsl #12
30006790:	7cc60606 	stcvcl	6, cr0, [r6], {6}
30006794:	00000000 	andeq	r0, r0, r0
30006798:	1c0c0000 	stcne	0, cr0, [ip], {0}
3000679c:	fecc6c3c 	mcr2	12, 6, r6, cr12, cr12, {1}
300067a0:	1e0c0c0c 	cdpne	12, 0, cr0, cr12, cr12, {0}
300067a4:	00000000 	andeq	r0, r0, r0
300067a8:	c0fe0000 	rscgts	r0, lr, r0
300067ac:	06fcc0c0 	ldreqbt	ip, [ip], r0, asr #1
300067b0:	7cc60606 	stcvcl	6, cr0, [r6], {6}
300067b4:	00000000 	andeq	r0, r0, r0
300067b8:	60380000 	eorvss	r0, r8, r0
300067bc:	c6fcc0c0 	ldrgtbt	ip, [ip], r0, asr #1
300067c0:	7cc6c6c6 	stcvcl	6, cr12, [r6], {198}
300067c4:	00000000 	andeq	r0, r0, r0
300067c8:	c6fe0000 	ldrgtbt	r0, [lr], r0
300067cc:	180c0606 	stmneda	ip, {r1, r2, r9, sl}
300067d0:	30303030 	eorccs	r3, r0, r0, lsr r0
300067d4:	00000000 	andeq	r0, r0, r0
300067d8:	c67c0000 	ldrgtbt	r0, [ip], -r0
300067dc:	c67cc6c6 	ldrgtbt	ip, [ip], -r6, asr #13
300067e0:	7cc6c6c6 	stcvcl	6, cr12, [r6], {198}
300067e4:	00000000 	andeq	r0, r0, r0
300067e8:	c67c0000 	ldrgtbt	r0, [ip], -r0
300067ec:	067ec6c6 	ldreqbt	ip, [lr], -r6, asr #13
300067f0:	780c0606 	stmvcda	ip, {r1, r2, r9, sl}
	...
300067fc:	00001818 	andeq	r1, r0, r8, lsl r8
30006800:	00181800 	andeqs	r1, r8, r0, lsl #16
	...
3000680c:	00001818 	andeq	r1, r0, r8, lsl r8
30006810:	30181800 	andccs	r1, r8, r0, lsl #16
30006814:	00000000 	andeq	r0, r0, r0
30006818:	06000000 	streq	r0, [r0], -r0
3000681c:	6030180c 	eorvss	r1, r0, ip, lsl #16
30006820:	060c1830 	undefined
	...
3000682c:	00007e00 	andeq	r7, r0, r0, lsl #28
30006830:	0000007e 	andeq	r0, r0, lr, ror r0
30006834:	00000000 	andeq	r0, r0, r0
30006838:	60000000 	andvs	r0, r0, r0
3000683c:	060c1830 	undefined
30006840:	6030180c 	eorvss	r1, r0, ip, lsl #16
30006844:	00000000 	andeq	r0, r0, r0
30006848:	c67c0000 	ldrgtbt	r0, [ip], -r0
3000684c:	18180cc6 	ldmneda	r8, {r1, r2, r6, r7, sl, fp}
30006850:	18180018 	ldmneda	r8, {r3, r4}
30006854:	00000000 	andeq	r0, r0, r0
30006858:	7c000000 	stcvc	0, cr0, [r0], {0}
3000685c:	dedec6c6 	cdple	6, 13, cr12, cr14, cr6, {6}
30006860:	7cc0dcde 	stcvcl	12, cr13, [r0], {222}
30006864:	00000000 	andeq	r0, r0, r0
30006868:	38100000 	ldmccda	r0, {}
3000686c:	fec6c66c 	cdp2	6, 12, cr12, cr6, cr12, {3}
30006870:	c6c6c6c6 	strgtb	ip, [r6], r6, asr #13
30006874:	00000000 	andeq	r0, r0, r0
30006878:	66fc0000 	ldrvsbt	r0, [ip], r0
3000687c:	667c6666 	ldrvsbt	r6, [ip], -r6, ror #12
30006880:	fc666666 	stc2l	6, cr6, [r6], #-408
30006884:	00000000 	andeq	r0, r0, r0
30006888:	663c0000 	ldrvst	r0, [ip], -r0
3000688c:	c0c0c0c2 	sbcgt	ip, r0, r2, asr #1
30006890:	3c66c2c0 	sfmcc	f4, 3, [r6], #-768
30006894:	00000000 	andeq	r0, r0, r0
30006898:	6cf80000 	ldcvsl	0, cr0, [r8]
3000689c:	66666666 	strvsbt	r6, [r6], -r6, ror #12
300068a0:	f86c6666 	stmnvda	ip!, {r1, r2, r5, r6, r9, sl, sp, lr}^
300068a4:	00000000 	andeq	r0, r0, r0
300068a8:	66fe0000 	ldrvsbt	r0, [lr], r0
300068ac:	68786862 	ldmvsda	r8!, {r1, r5, r6, fp, sp, lr}^
300068b0:	fe666260 	cdp2	2, 6, cr6, cr6, cr0, {3}
300068b4:	00000000 	andeq	r0, r0, r0
300068b8:	66fe0000 	ldrvsbt	r0, [lr], r0
300068bc:	68786862 	ldmvsda	r8!, {r1, r5, r6, fp, sp, lr}^
300068c0:	f0606060 	rsbnv	r6, r0, r0, rrx
300068c4:	00000000 	andeq	r0, r0, r0
300068c8:	663c0000 	ldrvst	r0, [ip], -r0
300068cc:	dec0c0c2 	cdple	0, 12, cr12, cr0, cr2, {6}
300068d0:	3a66c6c6 	bcc	319b83f0 <end+0x19b09a0>
300068d4:	00000000 	andeq	r0, r0, r0
300068d8:	c6c60000 	strgtb	r0, [r6], r0
300068dc:	c6fec6c6 	ldrgtbt	ip, [lr], r6, asr #13
300068e0:	c6c6c6c6 	strgtb	ip, [r6], r6, asr #13
300068e4:	00000000 	andeq	r0, r0, r0
300068e8:	183c0000 	ldmneda	ip!, {}
300068ec:	18181818 	ldmneda	r8, {r3, r4, fp, ip}
300068f0:	3c181818 	ldccc	8, cr1, [r8], {24}
300068f4:	00000000 	andeq	r0, r0, r0
300068f8:	0c1e0000 	ldceq	0, cr0, [lr], {0}
300068fc:	0c0c0c0c 	stceq	12, cr0, [ip], {12}
30006900:	78cccccc 	stmvcia	ip, {r2, r3, r6, r7, sl, fp, lr, pc}^
30006904:	00000000 	andeq	r0, r0, r0
30006908:	66e60000 	strvsbt	r0, [r6], r0
3000690c:	78786c66 	ldmvcda	r8!, {r1, r2, r5, r6, sl, fp, sp, lr}^
30006910:	e666666c 	strbt	r6, [r6], -ip, ror #12
30006914:	00000000 	andeq	r0, r0, r0
30006918:	60f00000 	rscvss	r0, r0, r0
3000691c:	60606060 	rsbvs	r6, r0, r0, rrx
30006920:	fe666260 	cdp2	2, 6, cr6, cr6, cr0, {3}
30006924:	00000000 	andeq	r0, r0, r0
30006928:	eec60000 	cdp	0, 12, cr0, cr6, cr0, {0}
3000692c:	c6d6fefe 	undefined
30006930:	c6c6c6c6 	strgtb	ip, [r6], r6, asr #13
30006934:	00000000 	andeq	r0, r0, r0
30006938:	e6c60000 	strb	r0, [r6], r0
3000693c:	cedefef6 	mrcgt	14, 6, pc, cr14, cr6, {7}
30006940:	c6c6c6c6 	strgtb	ip, [r6], r6, asr #13
30006944:	00000000 	andeq	r0, r0, r0
30006948:	c67c0000 	ldrgtbt	r0, [ip], -r0
3000694c:	c6c6c6c6 	strgtb	ip, [r6], r6, asr #13
30006950:	7cc6c6c6 	stcvcl	6, cr12, [r6], {198}
30006954:	00000000 	andeq	r0, r0, r0
30006958:	66fc0000 	ldrvsbt	r0, [ip], r0
3000695c:	607c6666 	rsbvss	r6, ip, r6, ror #12
30006960:	f0606060 	rsbnv	r6, r0, r0, rrx
30006964:	00000000 	andeq	r0, r0, r0
30006968:	c67c0000 	ldrgtbt	r0, [ip], -r0
3000696c:	c6c6c6c6 	strgtb	ip, [r6], r6, asr #13
30006970:	7cded6c6 	ldcvcl	6, cr13, [lr], {198}
30006974:	00000e0c 	andeq	r0, r0, ip, lsl #28
30006978:	66fc0000 	ldrvsbt	r0, [ip], r0
3000697c:	6c7c6666 	ldcvsl	6, cr6, [ip], #-408
30006980:	e6666666 	strbt	r6, [r6], -r6, ror #12
30006984:	00000000 	andeq	r0, r0, r0
30006988:	c67c0000 	ldrgtbt	r0, [ip], -r0
3000698c:	0c3860c6 	ldceq	0, cr6, [r8], #-792
30006990:	7cc6c606 	stcvcl	6, cr12, [r6], {6}
30006994:	00000000 	andeq	r0, r0, r0
30006998:	7e7e0000 	cdpvc	0, 7, cr0, cr14, cr0, {0}
3000699c:	1818185a 	ldmneda	r8, {r1, r3, r4, r6, fp, ip}
300069a0:	3c181818 	ldccc	8, cr1, [r8], {24}
300069a4:	00000000 	andeq	r0, r0, r0
300069a8:	c6c60000 	strgtb	r0, [r6], r0
300069ac:	c6c6c6c6 	strgtb	ip, [r6], r6, asr #13
300069b0:	7cc6c6c6 	stcvcl	6, cr12, [r6], {198}
300069b4:	00000000 	andeq	r0, r0, r0
300069b8:	c6c60000 	strgtb	r0, [r6], r0
300069bc:	c6c6c6c6 	strgtb	ip, [r6], r6, asr #13
300069c0:	10386cc6 	eornes	r6, r8, r6, asr #25
300069c4:	00000000 	andeq	r0, r0, r0
300069c8:	c6c60000 	strgtb	r0, [r6], r0
300069cc:	d6d6c6c6 	ldrleb	ip, [r6], r6, asr #13
300069d0:	6ceefed6 	stcvsl	14, cr15, [lr], #856
300069d4:	00000000 	andeq	r0, r0, r0
300069d8:	c6c60000 	strgtb	r0, [r6], r0
300069dc:	38387c6c 	ldmccda	r8!, {r2, r3, r5, r6, sl, fp, ip, sp, lr}
300069e0:	c6c66c7c 	uxtab16gt	r6, r6, ip, ROR #24
300069e4:	00000000 	andeq	r0, r0, r0
300069e8:	66660000 	strvsbt	r0, [r6], -r0
300069ec:	183c6666 	ldmneda	ip!, {r1, r2, r5, r6, r9, sl, sp, lr}
300069f0:	3c181818 	ldccc	8, cr1, [r8], {24}
300069f4:	00000000 	andeq	r0, r0, r0
300069f8:	c6fe0000 	ldrgtbt	r0, [lr], r0
300069fc:	30180c86 	andccs	r0, r8, r6, lsl #25
30006a00:	fec6c260 	cdp2	2, 12, cr12, cr6, cr0, {3}
30006a04:	00000000 	andeq	r0, r0, r0
30006a08:	303c0000 	eorccs	r0, ip, r0
30006a0c:	30303030 	eorccs	r3, r0, r0, lsr r0
30006a10:	3c303030 	ldccc	0, cr3, [r0], #-192
30006a14:	00000000 	andeq	r0, r0, r0
30006a18:	80000000 	andhi	r0, r0, r0
30006a1c:	3870e0c0 	ldmccda	r0!, {r6, r7, sp, lr, pc}^
30006a20:	02060e1c 	andeq	r0, r6, #448	; 0x1c0
30006a24:	00000000 	andeq	r0, r0, r0
30006a28:	0c3c0000 	ldceq	0, cr0, [ip]
30006a2c:	0c0c0c0c 	stceq	12, cr0, [ip], {12}
30006a30:	3c0c0c0c 	stccc	12, cr0, [ip], {12}
30006a34:	00000000 	andeq	r0, r0, r0
30006a38:	c66c3810 	undefined
	...
30006a54:	0000ff00 	andeq	pc, r0, r0, lsl #30
30006a58:	0c183000 	ldceq	0, cr3, [r8], {0}
	...
30006a6c:	7c0c7800 	stcvc	8, cr7, [ip], {0}
30006a70:	76cccccc 	strvcb	ip, [ip], ip, asr #25
30006a74:	00000000 	andeq	r0, r0, r0
30006a78:	60e00000 	rscvs	r0, r0, r0
30006a7c:	666c7860 	strvsbt	r7, [ip], -r0, ror #16
30006a80:	7c666666 	stcvcl	6, cr6, [r6], #-408
	...
30006a8c:	c0c67c00 	sbcgt	r7, r6, r0, lsl #24
30006a90:	7cc6c0c0 	stcvcl	0, cr12, [r6], {192}
30006a94:	00000000 	andeq	r0, r0, r0
30006a98:	0c1c0000 	ldceq	0, cr0, [ip], {0}
30006a9c:	cc6c3c0c 	stcgtl	12, cr3, [ip], #-48
30006aa0:	76cccccc 	strvcb	ip, [ip], ip, asr #25
	...
30006aac:	fec67c00 	cdp2	12, 12, cr7, cr6, cr0, {0}
30006ab0:	7cc6c0c0 	stcvcl	0, cr12, [r6], {192}
30006ab4:	00000000 	andeq	r0, r0, r0
30006ab8:	361c0000 	ldrcc	r0, [ip], -r0
30006abc:	30783032 	rsbccs	r3, r8, r2, lsr r0
30006ac0:	78303030 	ldmvcda	r0!, {r4, r5, ip, sp}
	...
30006acc:	cccc7600 	stcgtl	6, cr7, [ip], {0}
30006ad0:	7ccccccc 	stcvcl	12, cr12, [ip], {204}
30006ad4:	0078cc0c 	rsbeqs	ip, r8, ip, lsl #24
30006ad8:	60e00000 	rscvs	r0, r0, r0
30006adc:	66766c60 	ldrvsbt	r6, [r6], -r0, ror #24
30006ae0:	e6666666 	strbt	r6, [r6], -r6, ror #12
30006ae4:	00000000 	andeq	r0, r0, r0
30006ae8:	18180000 	ldmneda	r8, {}
30006aec:	18183800 	ldmneda	r8, {fp, ip, sp}
30006af0:	3c181818 	ldccc	8, cr1, [r8], {24}
30006af4:	00000000 	andeq	r0, r0, r0
30006af8:	06060000 	streq	r0, [r6], -r0
30006afc:	06060e00 	streq	r0, [r6], -r0, lsl #28
30006b00:	06060606 	streq	r0, [r6], -r6, lsl #12
30006b04:	003c6666 	eoreqs	r6, ip, r6, ror #12
30006b08:	60e00000 	rscvs	r0, r0, r0
30006b0c:	786c6660 	stmvcda	ip!, {r5, r6, r9, sl, sp, lr}^
30006b10:	e6666c78 	undefined
30006b14:	00000000 	andeq	r0, r0, r0
30006b18:	18380000 	ldmneda	r8!, {}
30006b1c:	18181818 	ldmneda	r8, {r3, r4, fp, ip}
30006b20:	3c181818 	ldccc	8, cr1, [r8], {24}
	...
30006b2c:	d6feec00 	ldrlebt	lr, [lr], r0, lsl #24
30006b30:	c6d6d6d6 	undefined
	...
30006b3c:	6666dc00 	strvsbt	sp, [r6], -r0, lsl #24
30006b40:	66666666 	strvsbt	r6, [r6], -r6, ror #12
	...
30006b4c:	c6c67c00 	strgtb	r7, [r6], r0, lsl #24
30006b50:	7cc6c6c6 	stcvcl	6, cr12, [r6], {198}
	...
30006b5c:	6666dc00 	strvsbt	sp, [r6], -r0, lsl #24
30006b60:	7c666666 	stcvcl	6, cr6, [r6], #-408
30006b64:	00f06060 	rsceqs	r6, r0, r0, rrx
30006b68:	00000000 	andeq	r0, r0, r0
30006b6c:	cccc7600 	stcgtl	6, cr7, [ip], {0}
30006b70:	7ccccccc 	stcvcl	12, cr12, [ip], {204}
30006b74:	001e0c0c 	andeqs	r0, lr, ip, lsl #24
30006b78:	00000000 	andeq	r0, r0, r0
30006b7c:	6676dc00 	ldrvsbt	sp, [r6], -r0, lsl #24
30006b80:	f0606060 	rsbnv	r6, r0, r0, rrx
	...
30006b8c:	60c67c00 	sbcvs	r7, r6, r0, lsl #24
30006b90:	7cc60c38 	stcvcl	12, cr0, [r6], {56}
30006b94:	00000000 	andeq	r0, r0, r0
30006b98:	30100000 	andccs	r0, r0, r0
30006b9c:	3030fc30 	eorccs	pc, r0, r0, lsr ip
30006ba0:	1c363030 	ldcne	0, cr3, [r6], #-192
	...
30006bac:	cccccc00 	stcgtl	12, cr12, [ip], {0}
30006bb0:	76cccccc 	strvcb	ip, [ip], ip, asr #25
	...
30006bbc:	c6c6c600 	strgtb	ip, [r6], r0, lsl #12
30006bc0:	386cc6c6 	stmccda	ip!, {r1, r2, r6, r7, r9, sl, lr, pc}^
	...
30006bcc:	d6c6c600 	strleb	ip, [r6], r0, lsl #12
30006bd0:	6cfed6d6 	ldcvsl	6, cr13, [lr], #856
	...
30006bdc:	386cc600 	stmccda	ip!, {r9, sl, lr, pc}^
30006be0:	c66c3838 	undefined
	...
30006bec:	c6c6c600 	strgtb	ip, [r6], r0, lsl #12
30006bf0:	7ec6c6c6 	cdpvc	6, 12, cr12, cr6, cr6, {6}
30006bf4:	00f80c06 	rsceqs	r0, r8, r6, lsl #24
30006bf8:	00000000 	andeq	r0, r0, r0
30006bfc:	18ccfe00 	stmneia	ip, {r9, sl, fp, ip, sp, lr, pc}^
30006c00:	fec66030 	mcr2	0, 6, r6, cr6, cr0, {1}
30006c04:	00000000 	andeq	r0, r0, r0
30006c08:	180e0000 	stmneda	lr, {}
30006c0c:	18701818 	ldmneda	r0!, {r3, r4, fp, ip}^
30006c10:	0e181818 	mrceq	8, 0, r1, cr8, cr8, {0}
30006c14:	00000000 	andeq	r0, r0, r0
30006c18:	18180000 	ldmneda	r8, {}
30006c1c:	18181818 	ldmneda	r8, {r3, r4, fp, ip}
30006c20:	18181818 	ldmneda	r8, {r3, r4, fp, ip}
30006c24:	00000000 	andeq	r0, r0, r0
30006c28:	18700000 	ldmneda	r0!, {}^
30006c2c:	180e1818 	stmneda	lr, {r3, r4, fp, ip}
30006c30:	70181818 	andvcs	r1, r8, r8, lsl r8
30006c34:	00000000 	andeq	r0, r0, r0
30006c38:	00dc7600 	sbceqs	r7, ip, r0, lsl #12
	...
30006c4c:	c66c3810 	undefined
30006c50:	00fec6c6 	rsceqs	ip, lr, r6, asr #13
30006c54:	00000000 	andeq	r0, r0, r0
30006c58:	663c0000 	ldrvst	r0, [ip], -r0
30006c5c:	c0c0c0c2 	sbcgt	ip, r0, r2, asr #1
30006c60:	3c66c2c0 	sfmcc	f4, 3, [r6], #-768
30006c64:	00007018 	andeq	r7, r0, r8, lsl r0
30006c68:	00cc0000 	sbceq	r0, ip, r0
30006c6c:	cccccc00 	stcgtl	12, cr12, [ip], {0}
30006c70:	76cccccc 	strvcb	ip, [ip], ip, asr #25
30006c74:	00000000 	andeq	r0, r0, r0
30006c78:	30180c00 	andccs	r0, r8, r0, lsl #24
30006c7c:	fec67c00 	cdp2	12, 12, cr7, cr6, cr0, {0}
30006c80:	7cc6c0c0 	stcvcl	0, cr12, [r6], {192}
30006c84:	00000000 	andeq	r0, r0, r0
30006c88:	6c381000 	ldcvs	0, cr1, [r8]
30006c8c:	7c0c7800 	stcvc	8, cr7, [ip], {0}
30006c90:	76cccccc 	strvcb	ip, [ip], ip, asr #25
30006c94:	00000000 	andeq	r0, r0, r0
30006c98:	00cc0000 	sbceq	r0, ip, r0
30006c9c:	7c0c7800 	stcvc	8, cr7, [ip], {0}
30006ca0:	76cccccc 	strvcb	ip, [ip], ip, asr #25
30006ca4:	00000000 	andeq	r0, r0, r0
30006ca8:	18306000 	ldmneda	r0!, {sp, lr}
30006cac:	7c0c7800 	stcvc	8, cr7, [ip], {0}
30006cb0:	76cccccc 	strvcb	ip, [ip], ip, asr #25
30006cb4:	00000000 	andeq	r0, r0, r0
30006cb8:	386c3800 	stmccda	ip!, {fp, ip, sp}^
30006cbc:	7c0c7800 	stcvc	8, cr7, [ip], {0}
30006cc0:	76cccccc 	strvcb	ip, [ip], ip, asr #25
	...
30006ccc:	c0c67c00 	sbcgt	r7, r6, r0, lsl #24
30006cd0:	7cc6c0c0 	stcvcl	0, cr12, [r6], {192}
30006cd4:	00007018 	andeq	r7, r0, r8, lsl r0
30006cd8:	6c381000 	ldcvs	0, cr1, [r8]
30006cdc:	fec67c00 	cdp2	12, 12, cr7, cr6, cr0, {0}
30006ce0:	7cc6c0c0 	stcvcl	0, cr12, [r6], {192}
30006ce4:	00000000 	andeq	r0, r0, r0
30006ce8:	00c60000 	sbceq	r0, r6, r0
30006cec:	fec67c00 	cdp2	12, 12, cr7, cr6, cr0, {0}
30006cf0:	7cc6c0c0 	stcvcl	0, cr12, [r6], {192}
30006cf4:	00000000 	andeq	r0, r0, r0
30006cf8:	18306000 	ldmneda	r0!, {sp, lr}
30006cfc:	fec67c00 	cdp2	12, 12, cr7, cr6, cr0, {0}
30006d00:	7cc6c0c0 	stcvcl	0, cr12, [r6], {192}
30006d04:	00000000 	andeq	r0, r0, r0
30006d08:	00660000 	rsbeq	r0, r6, r0
30006d0c:	18183800 	ldmneda	r8, {fp, ip, sp}
30006d10:	3c181818 	ldccc	8, cr1, [r8], {24}
30006d14:	00000000 	andeq	r0, r0, r0
30006d18:	663c1800 	ldrvst	r1, [ip], -r0, lsl #16
30006d1c:	18183800 	ldmneda	r8, {fp, ip, sp}
30006d20:	3c181818 	ldccc	8, cr1, [r8], {24}
30006d24:	00000000 	andeq	r0, r0, r0
30006d28:	18306000 	ldmneda	r0!, {sp, lr}
30006d2c:	18183800 	ldmneda	r8, {fp, ip, sp}
30006d30:	3c181818 	ldccc	8, cr1, [r8], {24}
30006d34:	00000000 	andeq	r0, r0, r0
30006d38:	1000c600 	andne	ip, r0, r0, lsl #12
30006d3c:	c6c66c38 	undefined
30006d40:	c6c6c6fe 	undefined
30006d44:	00000000 	andeq	r0, r0, r0
30006d48:	10386c38 	eornes	r6, r8, r8, lsr ip
30006d4c:	fec66c38 	mcr2	12, 6, r6, cr6, cr8, {1}
30006d50:	c6c6c6c6 	strgtb	ip, [r6], r6, asr #13
30006d54:	00000000 	andeq	r0, r0, r0
30006d58:	fe00180c 	cdp2	8, 0, cr1, cr0, cr12, {0}
30006d5c:	78686266 	stmvcda	r8!, {r1, r2, r5, r6, r9, sp, lr}^
30006d60:	fe666268 	cdp2	2, 6, cr6, cr6, cr8, {3}
	...
30006d6c:	3636ec00 	ldrcct	lr, [r6], -r0, lsl #24
30006d70:	6ed8d87e 	mrcvs	8, 6, sp, cr8, cr14, {3}
30006d74:	00000000 	andeq	r0, r0, r0
30006d78:	6c3e0000 	ldcvs	0, cr0, [lr]
30006d7c:	ccfecccc 	ldcgtl	12, cr12, [lr], #816
30006d80:	cecccccc 	cdpgt	12, 12, cr12, cr12, cr12, {6}
30006d84:	00000000 	andeq	r0, r0, r0
30006d88:	6c381000 	ldcvs	0, cr1, [r8]
30006d8c:	c6c67c00 	strgtb	r7, [r6], r0, lsl #24
30006d90:	7cc6c6c6 	stcvcl	6, cr12, [r6], {198}
30006d94:	00000000 	andeq	r0, r0, r0
30006d98:	00c60000 	sbceq	r0, r6, r0
30006d9c:	c6c67c00 	strgtb	r7, [r6], r0, lsl #24
30006da0:	7cc6c6c6 	stcvcl	6, cr12, [r6], {198}
30006da4:	00000000 	andeq	r0, r0, r0
30006da8:	18306000 	ldmneda	r0!, {sp, lr}
30006dac:	c6c67c00 	strgtb	r7, [r6], r0, lsl #24
30006db0:	7cc6c6c6 	stcvcl	6, cr12, [r6], {198}
30006db4:	00000000 	andeq	r0, r0, r0
30006db8:	cc783000 	ldcgtl	0, cr3, [r8]
30006dbc:	cccccc00 	stcgtl	12, cr12, [ip], {0}
30006dc0:	76cccccc 	strvcb	ip, [ip], ip, asr #25
30006dc4:	00000000 	andeq	r0, r0, r0
30006dc8:	18306000 	ldmneda	r0!, {sp, lr}
30006dcc:	cccccc00 	stcgtl	12, cr12, [ip], {0}
30006dd0:	76cccccc 	strvcb	ip, [ip], ip, asr #25
30006dd4:	00000000 	andeq	r0, r0, r0
30006dd8:	00c60000 	sbceq	r0, r6, r0
30006ddc:	c6c6c600 	strgtb	ip, [r6], r0, lsl #12
30006de0:	7ec6c6c6 	cdpvc	6, 12, cr12, cr6, cr6, {6}
30006de4:	00780c06 	rsbeqs	r0, r8, r6, lsl #24
30006de8:	7c00c600 	stcvc	6, cr12, [r0], {0}
30006dec:	c6c6c6c6 	strgtb	ip, [r6], r6, asr #13
30006df0:	7cc6c6c6 	stcvcl	6, cr12, [r6], {198}
30006df4:	00000000 	andeq	r0, r0, r0
30006df8:	c600c600 	strgt	ip, [r0], -r0, lsl #12
30006dfc:	c6c6c6c6 	strgtb	ip, [r6], r6, asr #13
30006e00:	7cc6c6c6 	stcvcl	6, cr12, [r6], {198}
30006e04:	00000000 	andeq	r0, r0, r0
30006e08:	7c181800 	ldcvc	8, cr1, [r8], {0}
30006e0c:	c0c0c0c6 	sbcgt	ip, r0, r6, asr #1
30006e10:	18187cc6 	ldmneda	r8, {r1, r2, r6, r7, sl, fp, ip, sp, lr}
30006e14:	00000000 	andeq	r0, r0, r0
30006e18:	646c3800 	strvsbt	r3, [ip], #-2048
30006e1c:	6060f060 	rsbvs	pc, r0, r0, rrx
30006e20:	fce66060 	stc2l	0, cr6, [r6], #384
30006e24:	00000000 	andeq	r0, r0, r0
30006e28:	66660000 	strvsbt	r0, [r6], -r0
30006e2c:	187e183c 	ldmneda	lr!, {r2, r3, r4, r5, fp, ip}^
30006e30:	1818187e 	ldmneda	r8, {r1, r2, r3, r4, r5, r6, fp, ip}
30006e34:	00000000 	andeq	r0, r0, r0
30006e38:	ccccf800 	stcgtl	8, cr15, [ip], {0}
30006e3c:	deccc4f8 	mcrle	4, 6, ip, cr12, cr8, {7}
30006e40:	c6cccccc 	strgtb	ip, [ip], ip, asr #25
30006e44:	00000000 	andeq	r0, r0, r0
30006e48:	181b0e00 	ldmneda	fp, {r9, sl, fp}
30006e4c:	187e1818 	ldmneda	lr!, {r3, r4, fp, ip}^
30006e50:	70d81818 	sbcvcs	r1, r8, r8, lsl r8
30006e54:	00000000 	andeq	r0, r0, r0
30006e58:	60301800 	eorvss	r1, r0, r0, lsl #16
30006e5c:	7c0c7800 	stcvc	8, cr7, [ip], {0}
30006e60:	76cccccc 	strvcb	ip, [ip], ip, asr #25
30006e64:	00000000 	andeq	r0, r0, r0
30006e68:	30180c00 	andccs	r0, r8, r0, lsl #24
30006e6c:	18183800 	ldmneda	r8, {fp, ip, sp}
30006e70:	3c181818 	ldccc	8, cr1, [r8], {24}
30006e74:	00000000 	andeq	r0, r0, r0
30006e78:	60301800 	eorvss	r1, r0, r0, lsl #16
30006e7c:	c6c67c00 	strgtb	r7, [r6], r0, lsl #24
30006e80:	7cc6c6c6 	stcvcl	6, cr12, [r6], {198}
30006e84:	00000000 	andeq	r0, r0, r0
30006e88:	60301800 	eorvss	r1, r0, r0, lsl #16
30006e8c:	cccccc00 	stcgtl	12, cr12, [ip], {0}
30006e90:	76cccccc 	strvcb	ip, [ip], ip, asr #25
30006e94:	00000000 	andeq	r0, r0, r0
30006e98:	dc760000 	ldclel	0, cr0, [r6]
30006e9c:	6666dc00 	strvsbt	sp, [r6], -r0, lsl #24
30006ea0:	66666666 	strvsbt	r6, [r6], -r6, ror #12
30006ea4:	00000000 	andeq	r0, r0, r0
30006ea8:	c600dc76 	undefined
30006eac:	defef6e6 	cdple	6, 15, cr15, cr14, cr6, {7}
30006eb0:	c6c6c6ce 	strgtb	ip, [r6], lr, asr #13
30006eb4:	00000000 	andeq	r0, r0, r0
30006eb8:	6c3c0000 	ldcvs	0, cr0, [ip]
30006ebc:	7e003e6c 	cdpvc	14, 0, cr3, cr0, cr12, {3}
	...
30006ec8:	6c380000 	ldcvs	0, cr0, [r8]
30006ecc:	7c00386c 	stcvc	8, cr3, [r0], {108}
	...
30006ed8:	30300000 	eorccs	r0, r0, r0
30006edc:	60303000 	eorvss	r3, r0, r0
30006ee0:	7cc6c6c0 	stcvcl	6, cr12, [r6], {192}
	...
30006eec:	c0fe0000 	rscgts	r0, lr, r0
30006ef0:	00c0c0c0 	sbceq	ip, r0, r0, asr #1
	...
30006efc:	06fe0000 	ldreqbt	r0, [lr], r0
30006f00:	00060606 	andeq	r0, r6, r6, lsl #12
30006f04:	00000000 	andeq	r0, r0, r0
30006f08:	62e06000 	rscvs	r6, r0, #0	; 0x0
30006f0c:	30186c66 	andccs	r6, r8, r6, ror #24
30006f10:	0c86dc60 	stceq	12, cr13, [r6], {96}
30006f14:	00003e18 	andeq	r3, r0, r8, lsl lr
30006f18:	62e06000 	rscvs	r6, r0, #0	; 0x0
30006f1c:	30186c66 	andccs	r6, r8, r6, ror #24
30006f20:	3f9ace66 	swicc	0x009ace66
30006f24:	00000606 	andeq	r0, r0, r6, lsl #12
30006f28:	18180000 	ldmneda	r8, {}
30006f2c:	18181800 	ldmneda	r8, {fp, ip}
30006f30:	183c3c3c 	ldmneda	ip!, {r2, r3, r4, r5, sl, fp, ip, sp}
	...
30006f3c:	d86c3600 	stmleda	ip!, {r9, sl, ip, sp}^
30006f40:	0000366c 	andeq	r3, r0, ip, ror #12
	...
30006f4c:	366cd800 	strccbt	sp, [ip], -r0, lsl #16
30006f50:	0000d86c 	andeq	sp, r0, ip, ror #16
30006f54:	00000000 	andeq	r0, r0, r0
30006f58:	44114411 	ldrmi	r4, [r1], #-1041
30006f5c:	44114411 	ldrmi	r4, [r1], #-1041
30006f60:	44114411 	ldrmi	r4, [r1], #-1041
30006f64:	44114411 	ldrmi	r4, [r1], #-1041
30006f68:	aa55aa55 	bge	315718c4 <end+0x1569e74>
30006f6c:	aa55aa55 	bge	315718c8 <end+0x1569e78>
30006f70:	aa55aa55 	bge	315718cc <end+0x1569e7c>
30006f74:	aa55aa55 	bge	315718d0 <end+0x1569e80>
30006f78:	77dd77dd 	undefined
30006f7c:	77dd77dd 	undefined
30006f80:	77dd77dd 	undefined
30006f84:	77dd77dd 	undefined
30006f88:	18181818 	ldmneda	r8, {r3, r4, fp, ip}
30006f8c:	18181818 	ldmneda	r8, {r3, r4, fp, ip}
30006f90:	18181818 	ldmneda	r8, {r3, r4, fp, ip}
30006f94:	18181818 	ldmneda	r8, {r3, r4, fp, ip}
30006f98:	18181818 	ldmneda	r8, {r3, r4, fp, ip}
30006f9c:	f8181818 	ldmnvda	r8, {r3, r4, fp, ip}
30006fa0:	18181818 	ldmneda	r8, {r3, r4, fp, ip}
30006fa4:	18181818 	ldmneda	r8, {r3, r4, fp, ip}
30006fa8:	18181818 	ldmneda	r8, {r3, r4, fp, ip}
30006fac:	f818f818 	ldmnvda	r8, {r3, r4, fp, ip, sp, lr, pc}
30006fb0:	18181818 	ldmneda	r8, {r3, r4, fp, ip}
30006fb4:	18181818 	ldmneda	r8, {r3, r4, fp, ip}
30006fb8:	36363636 	undefined
30006fbc:	f6363636 	undefined
30006fc0:	36363636 	undefined
30006fc4:	36363636 	undefined
30006fc8:	00000000 	andeq	r0, r0, r0
30006fcc:	fe000000 	cdp2	0, 0, cr0, cr0, cr0, {0}
30006fd0:	36363636 	undefined
30006fd4:	36363636 	undefined
30006fd8:	00000000 	andeq	r0, r0, r0
30006fdc:	f818f800 	ldmnvda	r8, {fp, ip, sp, lr, pc}
30006fe0:	18181818 	ldmneda	r8, {r3, r4, fp, ip}
30006fe4:	18181818 	ldmneda	r8, {r3, r4, fp, ip}
30006fe8:	36363636 	undefined
30006fec:	f606f636 	undefined
30006ff0:	36363636 	undefined
30006ff4:	36363636 	undefined
30006ff8:	36363636 	undefined
30006ffc:	36363636 	undefined
30007000:	36363636 	undefined
30007004:	36363636 	undefined
30007008:	00000000 	andeq	r0, r0, r0
3000700c:	f606fe00 	strnv	pc, [r6], -r0, lsl #28
30007010:	36363636 	undefined
30007014:	36363636 	undefined
30007018:	36363636 	undefined
3000701c:	fe06f636 	mcr2	6, 0, pc, cr6, cr6, {1}
	...
30007028:	36363636 	undefined
3000702c:	fe363636 	mrc2	6, 1, r3, cr6, cr6, {1}
	...
30007038:	18181818 	ldmneda	r8, {r3, r4, fp, ip}
3000703c:	f818f818 	ldmnvda	r8, {r3, r4, fp, ip, sp, lr, pc}
	...
3000704c:	f8000000 	stmnvda	r0, {}
30007050:	18181818 	ldmneda	r8, {r3, r4, fp, ip}
30007054:	18181818 	ldmneda	r8, {r3, r4, fp, ip}
30007058:	18181818 	ldmneda	r8, {r3, r4, fp, ip}
3000705c:	1f181818 	swine	0x00181818
	...
30007068:	18181818 	ldmneda	r8, {r3, r4, fp, ip}
3000706c:	ff181818 	swinv	0x00181818
	...
3000707c:	ff000000 	swinv	0x00000000
30007080:	18181818 	ldmneda	r8, {r3, r4, fp, ip}
30007084:	18181818 	ldmneda	r8, {r3, r4, fp, ip}
30007088:	18181818 	ldmneda	r8, {r3, r4, fp, ip}
3000708c:	1f181818 	swine	0x00181818
30007090:	18181818 	ldmneda	r8, {r3, r4, fp, ip}
30007094:	18181818 	ldmneda	r8, {r3, r4, fp, ip}
30007098:	00000000 	andeq	r0, r0, r0
3000709c:	ff000000 	swinv	0x00000000
	...
300070a8:	18181818 	ldmneda	r8, {r3, r4, fp, ip}
300070ac:	ff181818 	swinv	0x00181818
300070b0:	18181818 	ldmneda	r8, {r3, r4, fp, ip}
300070b4:	18181818 	ldmneda	r8, {r3, r4, fp, ip}
300070b8:	18181818 	ldmneda	r8, {r3, r4, fp, ip}
300070bc:	1f181f18 	swine	0x00181f18
300070c0:	18181818 	ldmneda	r8, {r3, r4, fp, ip}
300070c4:	18181818 	ldmneda	r8, {r3, r4, fp, ip}
300070c8:	36363636 	undefined
300070cc:	37363636 	undefined
300070d0:	36363636 	undefined
300070d4:	36363636 	undefined
300070d8:	36363636 	undefined
300070dc:	3f303736 	swicc	0x00303736
	...
300070ec:	37303f00 	ldrcc	r3, [r0, -r0, lsl #30]!
300070f0:	36363636 	undefined
300070f4:	36363636 	undefined
300070f8:	36363636 	undefined
300070fc:	ff00f736 	swinv	0x0000f736
	...
3000710c:	f700ff00 	strnv	pc, [r0, -r0, lsl #30]
30007110:	36363636 	undefined
30007114:	36363636 	undefined
30007118:	36363636 	undefined
3000711c:	37303736 	undefined
30007120:	36363636 	undefined
30007124:	36363636 	undefined
30007128:	00000000 	andeq	r0, r0, r0
3000712c:	ff00ff00 	swinv	0x0000ff00
	...
30007138:	36363636 	undefined
3000713c:	f700f736 	smuadxnv	r0, r6, r7
30007140:	36363636 	undefined
30007144:	36363636 	undefined
30007148:	18181818 	ldmneda	r8, {r3, r4, fp, ip}
3000714c:	ff00ff18 	swinv	0x0000ff18
	...
30007158:	36363636 	undefined
3000715c:	ff363636 	swinv	0x00363636
	...
3000716c:	ff00ff00 	swinv	0x0000ff00
30007170:	18181818 	ldmneda	r8, {r3, r4, fp, ip}
30007174:	18181818 	ldmneda	r8, {r3, r4, fp, ip}
30007178:	00000000 	andeq	r0, r0, r0
3000717c:	ff000000 	swinv	0x00000000
30007180:	36363636 	undefined
30007184:	36363636 	undefined
30007188:	36363636 	undefined
3000718c:	3f363636 	swicc	0x00363636
	...
30007198:	18181818 	ldmneda	r8, {r3, r4, fp, ip}
3000719c:	1f181f18 	swine	0x00181f18
	...
300071ac:	1f181f00 	swine	0x00181f00
300071b0:	18181818 	ldmneda	r8, {r3, r4, fp, ip}
300071b4:	18181818 	ldmneda	r8, {r3, r4, fp, ip}
300071b8:	00000000 	andeq	r0, r0, r0
300071bc:	3f000000 	swicc	0x00000000
300071c0:	36363636 	undefined
300071c4:	36363636 	undefined
300071c8:	36363636 	undefined
300071cc:	ff363636 	swinv	0x00363636
300071d0:	36363636 	undefined
300071d4:	36363636 	undefined
300071d8:	18181818 	ldmneda	r8, {r3, r4, fp, ip}
300071dc:	ff18ff18 	swinv	0x0018ff18
300071e0:	18181818 	ldmneda	r8, {r3, r4, fp, ip}
300071e4:	18181818 	ldmneda	r8, {r3, r4, fp, ip}
300071e8:	18181818 	ldmneda	r8, {r3, r4, fp, ip}
300071ec:	f8181818 	ldmnvda	r8, {r3, r4, fp, ip}
	...
300071fc:	1f000000 	swine	0x00000000
30007200:	18181818 	ldmneda	r8, {r3, r4, fp, ip}
30007204:	18181818 	ldmneda	r8, {r3, r4, fp, ip}
30007208:	ffffffff 	swinv	0x00ffffff
3000720c:	ffffffff 	swinv	0x00ffffff
30007210:	ffffffff 	swinv	0x00ffffff
30007214:	ffffffff 	swinv	0x00ffffff
30007218:	00000000 	andeq	r0, r0, r0
3000721c:	ff000000 	swinv	0x00000000
30007220:	ffffffff 	swinv	0x00ffffff
30007224:	ffffffff 	swinv	0x00ffffff
30007228:	f0f0f0f0 	ldrnvsh	pc, [r0]
3000722c:	f0f0f0f0 	ldrnvsh	pc, [r0]
30007230:	f0f0f0f0 	ldrnvsh	pc, [r0]
30007234:	f0f0f0f0 	ldrnvsh	pc, [r0]
30007238:	0f0f0f0f 	swieq	0x000f0f0f
3000723c:	0f0f0f0f 	swieq	0x000f0f0f
30007240:	0f0f0f0f 	swieq	0x000f0f0f
30007244:	0f0f0f0f 	swieq	0x000f0f0f
30007248:	ffffffff 	swinv	0x00ffffff
3000724c:	00ffffff 	ldreqsh	pc, [pc, #255]	; 30007353 <fontdata_8x16+0xefb>
	...
3000725c:	d8dc7600 	ldmleia	ip, {r9, sl, ip, sp, lr}^
30007260:	76dcd8d8 	undefined
30007264:	00000000 	andeq	r0, r0, r0
30007268:	cc780000 	ldcgtl	0, cr0, [r8]
3000726c:	ccd8cccc 	ldcgtl	12, cr12, [r8], {204}
30007270:	ccc6c6c6 	stcgtl	6, cr12, [r6], {198}
30007274:	00000000 	andeq	r0, r0, r0
30007278:	c6fe0000 	ldrgtbt	r0, [lr], r0
3000727c:	c0c0c0c6 	sbcgt	ip, r0, r6, asr #1
30007280:	c0c0c0c0 	sbcgt	ip, r0, r0, asr #1
	...
3000728c:	6c6cfe00 	stcvsl	14, cr15, [ip]
30007290:	6c6c6c6c 	stcvsl	12, cr6, [ip], #-432
30007294:	00000000 	andeq	r0, r0, r0
30007298:	c6fe0000 	ldrgtbt	r0, [lr], r0
3000729c:	18183060 	ldmneda	r8, {r5, r6, ip, sp}
300072a0:	fec66030 	mcr2	0, 6, r6, cr6, cr0, {1}
	...
300072ac:	d8d87e00 	ldmleia	r8, {r9, sl, fp, ip, sp, lr}^
300072b0:	70d8d8d8 	ldrvcsb	sp, [r8], #136
	...
300072bc:	66666600 	strvsbt	r6, [r6], -r0, lsl #12
300072c0:	7c666666 	stcvcl	6, cr6, [r6], #-408
300072c4:	00c06060 	sbceq	r6, r0, r0, rrx
300072c8:	00000000 	andeq	r0, r0, r0
300072cc:	1818dc76 	ldmneda	r8, {r1, r2, r4, r5, r6, sl, fp, ip, lr, pc}
300072d0:	18181818 	ldmneda	r8, {r3, r4, fp, ip}
300072d4:	00000000 	andeq	r0, r0, r0
300072d8:	187e0000 	ldmneda	lr!, {}^
300072dc:	6666663c 	undefined
300072e0:	7e183c66 	cdpvc	12, 1, cr3, cr8, cr6, {3}
300072e4:	00000000 	andeq	r0, r0, r0
300072e8:	6c380000 	ldcvs	0, cr0, [r8]
300072ec:	c6fec6c6 	ldrgtbt	ip, [lr], r6, asr #13
300072f0:	386cc6c6 	stmccda	ip!, {r1, r2, r6, r7, r9, sl, lr, pc}^
300072f4:	00000000 	andeq	r0, r0, r0
300072f8:	6c380000 	ldcvs	0, cr0, [r8]
300072fc:	6cc6c6c6 	stcvsl	6, cr12, [r6], {198}
30007300:	ee6c6c6c 	cdp	12, 6, cr6, cr12, cr12, {3}
30007304:	00000000 	andeq	r0, r0, r0
30007308:	301e0000 	andccs	r0, lr, r0
3000730c:	663e0c18 	undefined
30007310:	3c666666 	stcccl	6, cr6, [r6], #-408
	...
3000731c:	dbdb7e00 	blle	2f6e6b24 <code_start-0x9194dc>
30007320:	00007edb 	ldreqd	r7, [r0], -fp
30007324:	00000000 	andeq	r0, r0, r0
30007328:	03000000 	tsteq	r0, #0	; 0x0
3000732c:	dbdb7e06 	blle	2f6e6b4c <code_start-0x9194b4>
30007330:	c0607ef3 	strgtd	r7, [r0], #-227
30007334:	00000000 	andeq	r0, r0, r0
30007338:	301c0000 	andccs	r0, ip, r0
3000733c:	607c6060 	rsbvss	r6, ip, r0, rrx
30007340:	1c306060 	ldcne	0, cr6, [r0], #-384
30007344:	00000000 	andeq	r0, r0, r0
30007348:	7c000000 	stcvc	0, cr0, [r0], {0}
3000734c:	c6c6c6c6 	strgtb	ip, [r6], r6, asr #13
30007350:	c6c6c6c6 	strgtb	ip, [r6], r6, asr #13
	...
3000735c:	fe0000fe 	mcr2	0, 0, r0, cr0, cr14, {7}
30007360:	00fe0000 	rsceqs	r0, lr, r0
	...
3000736c:	187e1818 	ldmneda	lr!, {r3, r4, fp, ip}^
30007370:	7e000018 	mcrvc	0, 0, r0, cr0, cr8, {0}
30007374:	00000000 	andeq	r0, r0, r0
30007378:	30000000 	andcc	r0, r0, r0
3000737c:	0c060c18 	stceq	12, cr0, [r6], {24}
30007380:	7e003018 	mcrvc	0, 0, r3, cr0, cr8, {0}
30007384:	00000000 	andeq	r0, r0, r0
30007388:	0c000000 	stceq	0, cr0, [r0], {0}
3000738c:	30603018 	rsbcc	r3, r0, r8, lsl r0
30007390:	7e000c18 	mcrvc	12, 0, r0, cr0, cr8, {0}
30007394:	00000000 	andeq	r0, r0, r0
30007398:	1b0e0000 	blne	303873a0 <end+0x37f950>
3000739c:	1818181b 	ldmneda	r8, {r0, r1, r3, r4, fp, ip}
300073a0:	18181818 	ldmneda	r8, {r3, r4, fp, ip}
300073a4:	18181818 	ldmneda	r8, {r3, r4, fp, ip}
300073a8:	18181818 	ldmneda	r8, {r3, r4, fp, ip}
300073ac:	18181818 	ldmneda	r8, {r3, r4, fp, ip}
300073b0:	d8d8d818 	ldmleia	r8, {r3, r4, fp, ip, lr, pc}^
300073b4:	00000070 	andeq	r0, r0, r0, ror r0
300073b8:	00000000 	andeq	r0, r0, r0
300073bc:	7e001800 	cdpvc	8, 0, cr1, cr0, cr0, {0}
300073c0:	00001800 	andeq	r1, r0, r0, lsl #16
	...
300073cc:	00dc7600 	sbceqs	r7, ip, r0, lsl #12
300073d0:	0000dc76 	andeq	sp, r0, r6, ror ip
300073d4:	00000000 	andeq	r0, r0, r0
300073d8:	6c6c3800 	stcvsl	8, cr3, [ip]
300073dc:	00000038 	andeq	r0, r0, r8, lsr r0
	...
300073ec:	18000000 	stmneda	r0, {}
300073f0:	00000018 	andeq	r0, r0, r8, lsl r0
	...
300073fc:	18000000 	stmneda	r0, {}
	...
30007408:	0c0c0f00 	stceq	15, cr0, [ip], {0}
3000740c:	ec0c0c0c 	stc	12, cr0, [ip], {12}
30007410:	1c3c6c6c 	ldcne	12, cr6, [ip], #-432
30007414:	00000000 	andeq	r0, r0, r0
30007418:	36366c00 	ldrcct	r6, [r6], -r0, lsl #24
3000741c:	00363636 	eoreqs	r3, r6, r6, lsr r6
	...
30007428:	0c663c00 	stceql	12, cr3, [r6]
3000742c:	007e3218 	rsbeqs	r3, lr, r8, lsl r2
	...
3000743c:	7e7e7e7e 	mrcvc	14, 3, r7, cr14, cr14, {3}
30007440:	007e7e7e 	rsbeqs	r7, lr, lr, ror lr
	...
30007458:	203d2078 	eorcss	r2, sp, r8, ror r0
3000745c:	64383025 	ldrvst	r3, [r8], #-37
30007460:	2079202c 	rsbcss	r2, r9, ip, lsr #32
30007464:	3025203d 	eorcc	r2, r5, sp, lsr r0
30007468:	0d0a6438 	cfstrseq	mvf6, [sl, #-224]
3000746c:	00000000 	andeq	r0, r0, r0
30007470:	2d2d2d2d 	stccs	13, cr2, [sp, #-180]!
30007474:	2d2d2d2d 	stccs	13, cr2, [sp, #-180]!
30007478:	2d2d2d2d 	stccs	13, cr2, [sp, #-180]!
3000747c:	2d2d2d2d 	stccs	13, cr2, [sp, #-180]!
30007480:	2d2d2d2d 	stccs	13, cr2, [sp, #-180]!
30007484:	2d2d2d2d 	stccs	13, cr2, [sp, #-180]!
30007488:	2d2d2d2d 	stccs	13, cr2, [sp, #-180]!
3000748c:	2d2d2d2d 	stccs	13, cr2, [sp, #-180]!
30007490:	00000a0d 	andeq	r0, r0, sp, lsl #20
30007494:	2a2a2a2a 	bcs	30a91d44 <end+0xa8a2f4>
30007498:	2a2a2a2a 	bcs	30a91d48 <end+0xa8a2f8>
3000749c:	2a2a2a2a 	bcs	30a91d4c <end+0xa8a2fc>
300074a0:	2a2a2a2a 	bcs	30a91d50 <end+0xa8a300>
300074a4:	253a782a 	ldrcs	r7, [sl, #-2090]!
300074a8:	20643830 	rsbcs	r3, r4, r0, lsr r8
300074ac:	253a7920 	ldrcs	r7, [sl, #-2336]!
300074b0:	0d643830 	stceql	8, cr3, [r4, #-192]!
300074b4:	0000000a 	andeq	r0, r0, sl
300074b8:	20727473 	rsbcss	r7, r2, r3, ror r4
300074bc:	7325203d 	teqvc	r5, #61	; 0x3d
300074c0:	00000d0a 	andeq	r0, r0, sl, lsl #26
300074c4:	646e6576 	strvsbt	r6, [lr], #-1398
300074c8:	6920726f 	stmvsdb	r0!, {r0, r1, r2, r3, r5, r6, r9, ip, sp, lr}
300074cc:	203d2064 	eorcss	r2, sp, r4, rrx
300074d0:	78257830 	stmvcda	r5!, {r4, r5, fp, ip, sp, lr}
300074d4:	6564202c 	strvsb	r2, [r4, #-44]!
300074d8:	65636976 	strvsb	r6, [r3, #-2422]!
300074dc:	20646920 	rsbcs	r6, r4, r0, lsr #18
300074e0:	7830203d 	ldmvcda	r0!, {r0, r2, r3, r4, r5, sp}
300074e4:	202c7825 	eorcs	r7, ip, r5, lsr #16
300074e8:	20726f6e 	rsbcss	r6, r2, lr, ror #30
300074ec:	657a6973 	ldrvsb	r6, [sl, #-2419]!
300074f0:	30203d20 	eorcc	r3, r0, r0, lsr #26
300074f4:	2c782578 	cfldr64cs	mvdx2, [r8], #-480
300074f8:	4d642520 	cfstr64mi	mvdx2, [r4, #-128]!
300074fc:	00000d0a 	andeq	r0, r0, sl, lsl #26
30007500:	636f6c42 	cmnvs	pc, #16896	; 0x4200
30007504:	65532f6b 	ldrvsb	r2, [r3, #-3947]
30007508:	726f7463 	rsbvc	r7, pc, #1660944384	; 0x63000000
3000750c:	61747320 	cmnvs	r4, r0, lsr #6
30007510:	41207472 	teqmi	r0, r2, ror r4
30007514:	65726464 	ldrvsb	r6, [r2, #-1124]!
30007518:	0a3a7373 	beq	30ea42ec <end+0xe9c89c>
3000751c:	0000000d 	andeq	r0, r0, sp
30007520:	00000d0a 	andeq	r0, r0, sl, lsl #26
30007524:	65746e45 	ldrvsb	r6, [r4, #-3653]!
30007528:	68742072 	ldmvsda	r4!, {r1, r4, r5, r6, sp}^
3000752c:	64612065 	strvsbt	r2, [r1], #-101
30007530:	73657264 	cmnvc	r5, #1073741830	; 0x40000006
30007534:	666f2073 	undefined
30007538:	63657320 	cmnvs	r5, #-2147483648	; 0x80000000
3000753c:	20726f74 	rsbcss	r6, r2, r4, ror pc
30007540:	65206f74 	strvs	r6, [r0, #-3956]!
30007544:	65736172 	ldrvsb	r6, [r3, #-370]!
30007548:	0000203a 	andeq	r2, r0, sl, lsr r0
3000754c:	73617265 	cmnvc	r1, #1342177286	; 0x50000006
30007550:	20676e69 	rsbcs	r6, r7, r9, ror #28
30007554:	0a2e2e2e 	beq	30b92e14 <end+0xb8b3c4>
30007558:	0000000d 	andeq	r0, r0, sp
3000755c:	65746e45 	ldrvsb	r6, [r4, #-3653]!
30007560:	68742072 	ldmvsda	r4!, {r1, r4, r5, r6, sp}^
30007564:	64612065 	strvsbt	r2, [r1], #-101
30007568:	73657264 	cmnvc	r5, #1073741830	; 0x40000006
3000756c:	666f2073 	undefined
30007570:	63657320 	cmnvs	r5, #-2147483648	; 0x80000000
30007574:	20726f74 	rsbcss	r6, r2, r4, ror pc
30007578:	77206f74 	undefined
3000757c:	65746972 	ldrvsb	r6, [r4, #-2418]!
30007580:	0000203a 	andeq	r2, r0, sl, lsr r0
30007584:	65746e45 	ldrvsb	r6, [r4, #-3653]!
30007588:	68742072 	ldmvsda	r4!, {r1, r4, r5, r6, sp}^
3000758c:	74732065 	ldrvcbt	r2, [r3], #-101
30007590:	676e6972 	undefined
30007594:	206f7420 	rsbcs	r7, pc, r0, lsr #8
30007598:	74697277 	strvcbt	r7, [r9], #-631
3000759c:	00203a65 	eoreq	r3, r0, r5, ror #20
300075a0:	74697277 	strvcbt	r7, [r9], #-631
300075a4:	20676e69 	rsbcs	r6, r7, r9, ror #28
300075a8:	0a2e2e2e 	beq	30b92e68 <end+0xb8b418>
300075ac:	0000000d 	andeq	r0, r0, sp
300075b0:	65746e45 	ldrvsb	r6, [r4, #-3653]!
300075b4:	68742072 	ldmvsda	r4!, {r1, r4, r5, r6, sp}^
300075b8:	64612065 	strvsbt	r2, [r1], #-101
300075bc:	73657264 	cmnvc	r5, #1073741830	; 0x40000006
300075c0:	6f742073 	swivs	0x00742073
300075c4:	61657220 	cmnvs	r5, r0, lsr #4
300075c8:	00203a64 	eoreq	r3, r0, r4, ror #20
300075cc:	61746144 	cmnvs	r4, r4, asr #2
300075d0:	0a203a20 	beq	30815e58 <end+0x80e408>
300075d4:	0000000d 	andeq	r0, r0, sp
300075d8:	78323025 	ldmvcda	r2!, {r0, r2, r5, ip, sp}
300075dc:	00000020 	andeq	r0, r0, r0, lsr #32
300075e0:	3b202020 	blcc	3080f668 <end+0x807c18>
300075e4:	00000020 	andeq	r0, r0, r0, lsr #32
300075e8:	205d735b 	subcss	r7, sp, fp, asr r3
300075ec:	6e616353 	mcrvs	3, 3, r6, cr1, cr3, {2}
300075f0:	726f6e20 	rsbvc	r6, pc, #512	; 0x200
300075f4:	616c6620 	cmnvs	ip, r0, lsr #12
300075f8:	0d0a6873 	stceq	8, cr6, [sl, #-460]
300075fc:	00000000 	andeq	r0, r0, r0
30007600:	205d655b 	subcss	r6, sp, fp, asr r5
30007604:	73617245 	cmnvc	r1, #1342177284	; 0x50000004
30007608:	6f6e2065 	swivs	0x006e2065
3000760c:	6c662072 	stcvsl	0, cr2, [r6], #-456
30007610:	0a687361 	beq	31a2439c <end+0x1a1c94c>
30007614:	0000000d 	andeq	r0, r0, sp
30007618:	205d775b 	subcss	r7, sp, fp, asr r7
3000761c:	74697257 	strvcbt	r7, [r9], #-599
30007620:	6f6e2065 	swivs	0x006e2065
30007624:	6c662072 	stcvsl	0, cr2, [r6], #-456
30007628:	0a687361 	beq	31a243b4 <end+0x1a1c964>
3000762c:	0000000d 	andeq	r0, r0, sp
30007630:	205d725b 	subcss	r7, sp, fp, asr r2
30007634:	64616552 	strvsbt	r6, [r1], #-1362
30007638:	726f6e20 	rsbvc	r6, pc, #512	; 0x200
3000763c:	616c6620 	cmnvs	ip, r0, lsr #12
30007640:	0d0a6873 	stceq	8, cr6, [sl, #-460]
30007644:	00000000 	andeq	r0, r0, r0
30007648:	205d715b 	subcss	r7, sp, fp, asr r1
3000764c:	74697571 	strvcbt	r7, [r9], #-1393
30007650:	00000d0a 	andeq	r0, r0, sl, lsl #26
30007654:	65746e45 	ldrvsb	r6, [r4, #-3653]!
30007658:	65732072 	ldrvsb	r2, [r3, #-114]!
3000765c:	7463656c 	strvcbt	r6, [r3], #-1388
30007660:	3a6e6f69 	bcc	31ba340c <end+0x1b9b9bc>
30007664:	00000020 	andeq	r0, r0, r0, lsr #32
30007668:	0d0a6325 	stceq	3, cr6, [sl, #-148]
3000766c:	00000000 	andeq	r0, r0, r0
30007670:	72737063 	rsbvcs	r7, r3, #99	; 0x63
30007674:	2578303d 	ldrcsb	r3, [r8, #-61]!
30007678:	0d783830 	ldceql	8, cr3, [r8, #-192]!
3000767c:	0d73250a 	cfldr64eq	mvdx2, [r3, #-40]!
30007680:	0000000a 	andeq	r0, r0, sl
30007684:	76697773 	undefined
30007688:	615f6c61 	cmpvs	pc, r1, ror #24
3000768c:	3d726464 	cfldrdcc	mvd6, [r2, #-400]!
30007690:	78257830 	stmvcda	r5!, {r4, r5, fp, ip, sp, lr}
30007694:	00000a0d 	andeq	r0, r0, sp, lsl #20
30007698:	3d6c6176 	stfcce	f6, [ip, #-472]!
3000769c:	30257830 	eorcc	r7, r5, r0, lsr r8
300076a0:	0a0d7838 	beq	30365788 <end+0x35dd38>
300076a4:	00000000 	andeq	r0, r0, r0

300076a8 <hex_tab>:
300076a8:	33323130 	teqcc	r2, #12	; 0xc
300076ac:	37363534 	undefined
300076b0:	42413938 	submi	r3, r1, #917504	; 0xe0000
300076b4:	46454443 	strmib	r4, [r5], -r3, asr #8
300076b8:	00007830 	andeq	r7, r0, r0, lsr r8
300076bc:	5f717269 	swipl	0x00717269
300076c0:	5b6e7566 	blpl	31ba4c60 <end+0x1b9d210>
300076c4:	5d746962 	ldcpll	9, cr6, [r4, #-392]!
300076c8:	2578303d 	ldrcsb	r3, [r8, #-61]!
300076cc:	00783830 	rsbeqs	r3, r8, r0, lsr r8
300076d0:	6564756e 	strvsb	r7, [r4, #-1390]!
300076d4:	656e6966 	strvsb	r6, [lr, #-2406]!
300076d8:	6e616820 	cdpvs	8, 6, cr6, cr1, cr0, {1}
300076dc:	20656c64 	rsbcs	r6, r5, r4, ror #24
300076e0:	3a6d756e 	bcc	31b64ca0 <end+0x1b5d250>
300076e4:	0a0d6425 	beq	30360780 <end+0x358d30>
300076e8:	00000000 	andeq	r0, r0, r0
300076ec:	e58893e5 	str	r9, [r8, #997]
300076f0:	93e58893 	mvnls	r8, #9633792	; 0x930000
300076f4:	b8e42088 	stmltia	r4!, {r3, r7, sp}^
300076f8:	b1b9e48d 	movlts	lr, sp, lsl #9
300076fc:	ef81a0e7 	swi	0x0081a0e7
30007700:	bcef81bc 	stfltp	f0, [pc], #752
30007704:	000a0d81 	andeq	r0, sl, r1, lsl #27
30007708:	e58893e5 	str	r9, [r8, #997]
3000770c:	93e58893 	mvnls	r8, #9633792	; 0x930000
30007710:	000a0d88 	andeq	r0, sl, r8, lsl #27
30007714:	783c3c3c 	ldmvcda	ip!, {r2, r3, r4, r5, sl, fp, ip, sp}
30007718:	3830253a 	ldmccda	r0!, {r1, r3, r4, r5, r8, sl, sp}
3000771c:	79202064 	stmvcdb	r0!, {r2, r5, r6, sp}
30007720:	3830253a 	ldmccda	r0!, {r1, r3, r4, r5, r8, sl, sp}
30007724:	3e3e3e64 	cdpcc	14, 3, cr3, cr14, cr4, {3}
30007728:	00000000 	andeq	r0, r0, r0
Disassembly of section .data:

3000772c <_ctype>:
3000772c:	08080808 	stmeqda	r8, {r3, fp}
30007730:	08080808 	stmeqda	r8, {r3, fp}
30007734:	28282808 	stmcsda	r8!, {r3, fp, sp}
30007738:	08082828 	stmeqda	r8, {r3, r5, fp, sp}
3000773c:	08080808 	stmeqda	r8, {r3, fp}
30007740:	08080808 	stmeqda	r8, {r3, fp}
30007744:	08080808 	stmeqda	r8, {r3, fp}
30007748:	08080808 	stmeqda	r8, {r3, fp}
3000774c:	101010a0 	andnes	r1, r0, r0, lsr #1
30007750:	10101010 	andnes	r1, r0, r0, lsl r0
30007754:	10101010 	andnes	r1, r0, r0, lsl r0
30007758:	10101010 	andnes	r1, r0, r0, lsl r0
3000775c:	04040404 	streq	r0, [r4], #-1028
30007760:	04040404 	streq	r0, [r4], #-1028
30007764:	10100404 	andnes	r0, r0, r4, lsl #8
30007768:	10101010 	andnes	r1, r0, r0, lsl r0
3000776c:	41414110 	cmpmi	r1, r0, lsl r1
30007770:	01414141 	cmpeq	r1, r1, asr #2
30007774:	01010101 	tsteq	r1, r1, lsl #2
30007778:	01010101 	tsteq	r1, r1, lsl #2
3000777c:	01010101 	tsteq	r1, r1, lsl #2
30007780:	01010101 	tsteq	r1, r1, lsl #2
30007784:	10010101 	andne	r0, r1, r1, lsl #2
30007788:	10101010 	andnes	r1, r0, r0, lsl r0
3000778c:	42424210 	submi	r4, r2, #1	; 0x1
30007790:	02424242 	subeq	r4, r2, #536870916	; 0x20000004
30007794:	02020202 	andeq	r0, r2, #536870912	; 0x20000000
30007798:	02020202 	andeq	r0, r2, #536870912	; 0x20000000
3000779c:	02020202 	andeq	r0, r2, #536870912	; 0x20000000
300077a0:	02020202 	andeq	r0, r2, #536870912	; 0x20000000
300077a4:	10020202 	andne	r0, r2, r2, lsl #4
300077a8:	08101010 	ldmeqda	r0, {r4, ip}
	...
300077cc:	101010a0 	andnes	r1, r0, r0, lsr #1
300077d0:	10101010 	andnes	r1, r0, r0, lsl r0
300077d4:	10101010 	andnes	r1, r0, r0, lsl r0
300077d8:	10101010 	andnes	r1, r0, r0, lsl r0
300077dc:	10101010 	andnes	r1, r0, r0, lsl r0
300077e0:	10101010 	andnes	r1, r0, r0, lsl r0
300077e4:	10101010 	andnes	r1, r0, r0, lsl r0
300077e8:	10101010 	andnes	r1, r0, r0, lsl r0
300077ec:	01010101 	tsteq	r1, r1, lsl #2
300077f0:	01010101 	tsteq	r1, r1, lsl #2
300077f4:	01010101 	tsteq	r1, r1, lsl #2
300077f8:	01010101 	tsteq	r1, r1, lsl #2
300077fc:	01010101 	tsteq	r1, r1, lsl #2
30007800:	10010101 	andne	r0, r1, r1, lsl #2
30007804:	01010101 	tsteq	r1, r1, lsl #2
30007808:	02010101 	andeq	r0, r1, #1073741824	; 0x40000000
3000780c:	02020202 	andeq	r0, r2, #536870912	; 0x20000000
30007810:	02020202 	andeq	r0, r2, #536870912	; 0x20000000
30007814:	02020202 	andeq	r0, r2, #536870912	; 0x20000000
30007818:	02020202 	andeq	r0, r2, #536870912	; 0x20000000
3000781c:	02020202 	andeq	r0, r2, #536870912	; 0x20000000
30007820:	10020202 	andne	r0, r2, r2, lsl #4
30007824:	02020202 	andeq	r0, r2, #536870912	; 0x20000000
30007828:	02020202 	andeq	r0, r2, #536870912	; 0x20000000

3000782c <hex_tab>:
3000782c:	33323130 	teqcc	r2, #12	; 0xc
30007830:	37363534 	undefined
30007834:	62613938 	rsbvs	r3, r1, #917504	; 0xe0000
30007838:	66656463 	strvsbt	r6, [r5], -r3, ror #8

3000783c <s3c2440_lcd_controller>:
3000783c:	30006410 	andcc	r6, r0, r0, lsl r4
30007840:	3000291c 	andcc	r2, r0, ip, lsl r9
30007844:	30002ba4 	andcc	r2, r0, r4, lsr #23
30007848:	30002c00 	andcc	r2, r0, r0, lsl #24

3000784c <lcd_4_3_params>:
3000784c:	3000643c 	andcc	r6, r0, ip, lsr r4
	...
30007860:	00000001 	andeq	r0, r0, r1
30007864:	00000001 	andeq	r0, r0, r1
30007868:	0000000a 	andeq	r0, r0, sl
3000786c:	00000002 	andeq	r0, r0, r2
30007870:	00000002 	andeq	r0, r0, r2
30007874:	00000029 	andeq	r0, r0, r9, lsr #32
30007878:	00000002 	andeq	r0, r0, r2
3000787c:	00000002 	andeq	r0, r0, r2
30007880:	00000009 	andeq	r0, r0, r9
30007884:	000001e0 	andeq	r0, r0, r0, ror #3
30007888:	00000110 	andeq	r0, r0, r0, lsl r1
3000788c:	00000020 	andeq	r0, r0, r0, lsr #32
30007890:	33c00000 	biccc	r0, r0, #0	; 0x0
Disassembly of section .bss:

30007894 <bss_start>:
30007894:	00000000 	andeq	r0, r0, r0

30007898 <xres>:
30007898:	00000000 	andeq	r0, r0, r0

3000789c <yres>:
3000789c:	00000000 	andeq	r0, r0, r0

300078a0 <bpp>:
300078a0:	00000000 	andeq	r0, r0, r0

300078a4 <fb_base>:
300078a4:	00000000 	andeq	r0, r0, r0

300078a8 <xres>:
300078a8:	00000000 	andeq	r0, r0, r0

300078ac <yres>:
300078ac:	00000000 	andeq	r0, r0, r0

300078b0 <bpp>:
300078b0:	00000000 	andeq	r0, r0, r0

300078b4 <p_array_lcd_controller>:
	...

300078dc <g_p_lcd_controller_selected>:
300078dc:	00000000 	andeq	r0, r0, r0

300078e0 <swap>:
300078e0:	00000000 	andeq	r0, r0, r0

300078e4 <p_array_lcd>:
	...

3000790c <g_p_lcd_selected>:
3000790c:	00000000 	andeq	r0, r0, r0

30007910 <g_ts_timer_enable>:
30007910:	00000000 	andeq	r0, r0, r0

30007914 <update>:
30007914:	00000000 	andeq	r0, r0, r0

30007918 <touchscreem_newestX>:
30007918:	00000000 	andeq	r0, r0, r0

3000791c <touchscreem_newestY>:
3000791c:	00000000 	andeq	r0, r0, r0

30007920 <new_xy>:
30007920:	00000000 	andeq	r0, r0, r0

30007924 <ms_time>:
30007924:	00000000 	andeq	r0, r0, r0

30007928 <fun_arr>:
	...

30007978 <init_clk>:
30007978:	00000000 	andeq	r0, r0, r0

3000797c <ledon.0>:
3000797c:	00000000 	andeq	r0, r0, r0

30007980 <irq_fun>:
	...

30007a00 <key>:
	...

30007a30 <lcd_y>:
30007a30:	00000000 	andeq	r0, r0, r0

30007a34 <ky>:
	...

30007a3c <base_x>:
30007a3c:	00000000 	andeq	r0, r0, r0

30007a40 <base_y>:
30007a40:	00000000 	andeq	r0, r0, r0

30007a44 <lcd_x>:
30007a44:	00000000 	andeq	r0, r0, r0

30007a48 <kx>:
	...
Disassembly of section .comment:

00000000 <.comment>:
   0:	43434700 	cmpmi	r3, #0	; 0x0
   4:	4728203a 	undefined
   8:	2029554e 	eorcs	r5, r9, lr, asr #10
   c:	2e342e33 	mrccs	14, 1, r2, cr4, cr3, {1}
  10:	47000035 	smladxmi	r0, r5, r0, r0
  14:	203a4343 	eorcss	r4, sl, r3, asr #6
  18:	554e4728 	strplb	r4, [lr, #-1832]
  1c:	2e332029 	cdpcs	0, 3, cr2, cr3, cr9, {1}
  20:	00352e34 	eoreqs	r2, r5, r4, lsr lr
  24:	43434700 	cmpmi	r3, #0	; 0x0
  28:	4728203a 	undefined
  2c:	2029554e 	eorcs	r5, r9, lr, asr #10
  30:	2e342e33 	mrccs	14, 1, r2, cr4, cr3, {1}
  34:	47000035 	smladxmi	r0, r5, r0, r0
  38:	203a4343 	eorcss	r4, sl, r3, asr #6
  3c:	554e4728 	strplb	r4, [lr, #-1832]
  40:	2e332029 	cdpcs	0, 3, cr2, cr3, cr9, {1}
  44:	00352e34 	eoreqs	r2, r5, r4, lsr lr
  48:	43434700 	cmpmi	r3, #0	; 0x0
  4c:	4728203a 	undefined
  50:	2029554e 	eorcs	r5, r9, lr, asr #10
  54:	2e342e33 	mrccs	14, 1, r2, cr4, cr3, {1}
  58:	47000035 	smladxmi	r0, r5, r0, r0
  5c:	203a4343 	eorcss	r4, sl, r3, asr #6
  60:	554e4728 	strplb	r4, [lr, #-1832]
  64:	2e332029 	cdpcs	0, 3, cr2, cr3, cr9, {1}
  68:	00352e34 	eoreqs	r2, r5, r4, lsr lr
  6c:	43434700 	cmpmi	r3, #0	; 0x0
  70:	4728203a 	undefined
  74:	2029554e 	eorcs	r5, r9, lr, asr #10
  78:	2e342e33 	mrccs	14, 1, r2, cr4, cr3, {1}
  7c:	47000035 	smladxmi	r0, r5, r0, r0
  80:	203a4343 	eorcss	r4, sl, r3, asr #6
  84:	554e4728 	strplb	r4, [lr, #-1832]
  88:	2e332029 	cdpcs	0, 3, cr2, cr3, cr9, {1}
  8c:	00352e34 	eoreqs	r2, r5, r4, lsr lr
  90:	43434700 	cmpmi	r3, #0	; 0x0
  94:	4728203a 	undefined
  98:	2029554e 	eorcs	r5, r9, lr, asr #10
  9c:	2e342e33 	mrccs	14, 1, r2, cr4, cr3, {1}
  a0:	47000035 	smladxmi	r0, r5, r0, r0
  a4:	203a4343 	eorcss	r4, sl, r3, asr #6
  a8:	554e4728 	strplb	r4, [lr, #-1832]
  ac:	2e332029 	cdpcs	0, 3, cr2, cr3, cr9, {1}
  b0:	00352e34 	eoreqs	r2, r5, r4, lsr lr
  b4:	43434700 	cmpmi	r3, #0	; 0x0
  b8:	4728203a 	undefined
  bc:	2029554e 	eorcs	r5, r9, lr, asr #10
  c0:	2e342e33 	mrccs	14, 1, r2, cr4, cr3, {1}
  c4:	47000035 	smladxmi	r0, r5, r0, r0
  c8:	203a4343 	eorcss	r4, sl, r3, asr #6
  cc:	554e4728 	strplb	r4, [lr, #-1832]
  d0:	2e332029 	cdpcs	0, 3, cr2, cr3, cr9, {1}
  d4:	00352e34 	eoreqs	r2, r5, r4, lsr lr
  d8:	43434700 	cmpmi	r3, #0	; 0x0
  dc:	4728203a 	undefined
  e0:	2029554e 	eorcs	r5, r9, lr, asr #10
  e4:	2e342e33 	mrccs	14, 1, r2, cr4, cr3, {1}
  e8:	47000035 	smladxmi	r0, r5, r0, r0
  ec:	203a4343 	eorcss	r4, sl, r3, asr #6
  f0:	554e4728 	strplb	r4, [lr, #-1832]
  f4:	2e332029 	cdpcs	0, 3, cr2, cr3, cr9, {1}
  f8:	00352e34 	eoreqs	r2, r5, r4, lsr lr
  fc:	43434700 	cmpmi	r3, #0	; 0x0
 100:	4728203a 	undefined
 104:	2029554e 	eorcs	r5, r9, lr, asr #10
 108:	2e342e33 	mrccs	14, 1, r2, cr4, cr3, {1}
 10c:	47000035 	smladxmi	r0, r5, r0, r0
 110:	203a4343 	eorcss	r4, sl, r3, asr #6
 114:	554e4728 	strplb	r4, [lr, #-1832]
 118:	2e332029 	cdpcs	0, 3, cr2, cr3, cr9, {1}
 11c:	00352e34 	eoreqs	r2, r5, r4, lsr lr
 120:	43434700 	cmpmi	r3, #0	; 0x0
 124:	4728203a 	undefined
 128:	2029554e 	eorcs	r5, r9, lr, asr #10
 12c:	2e342e33 	mrccs	14, 1, r2, cr4, cr3, {1}
 130:	47000035 	smladxmi	r0, r5, r0, r0
 134:	203a4343 	eorcss	r4, sl, r3, asr #6
 138:	554e4728 	strplb	r4, [lr, #-1832]
 13c:	2e332029 	cdpcs	0, 3, cr2, cr3, cr9, {1}
 140:	00352e34 	eoreqs	r2, r5, r4, lsr lr
 144:	43434700 	cmpmi	r3, #0	; 0x0
 148:	4728203a 	undefined
 14c:	2029554e 	eorcs	r5, r9, lr, asr #10
 150:	2e342e33 	mrccs	14, 1, r2, cr4, cr3, {1}
 154:	47000035 	smladxmi	r0, r5, r0, r0
 158:	203a4343 	eorcss	r4, sl, r3, asr #6
 15c:	554e4728 	strplb	r4, [lr, #-1832]
 160:	2e332029 	cdpcs	0, 3, cr2, cr3, cr9, {1}
 164:	00352e34 	eoreqs	r2, r5, r4, lsr lr
 168:	43434700 	cmpmi	r3, #0	; 0x0
 16c:	4728203a 	undefined
 170:	2029554e 	eorcs	r5, r9, lr, asr #10
 174:	2e342e33 	mrccs	14, 1, r2, cr4, cr3, {1}
 178:	47000035 	smladxmi	r0, r5, r0, r0
 17c:	203a4343 	eorcss	r4, sl, r3, asr #6
 180:	554e4728 	strplb	r4, [lr, #-1832]
 184:	2e332029 	cdpcs	0, 3, cr2, cr3, cr9, {1}
 188:	00352e34 	eoreqs	r2, r5, r4, lsr lr
 18c:	43434700 	cmpmi	r3, #0	; 0x0
 190:	4728203a 	undefined
 194:	2029554e 	eorcs	r5, r9, lr, asr #10
 198:	2e342e33 	mrccs	14, 1, r2, cr4, cr3, {1}
 19c:	47000035 	smladxmi	r0, r5, r0, r0
 1a0:	203a4343 	eorcss	r4, sl, r3, asr #6
 1a4:	554e4728 	strplb	r4, [lr, #-1832]
 1a8:	2e332029 	cdpcs	0, 3, cr2, cr3, cr9, {1}
 1ac:	00352e34 	eoreqs	r2, r5, r4, lsr lr
 1b0:	43434700 	cmpmi	r3, #0	; 0x0
 1b4:	4728203a 	undefined
 1b8:	2029554e 	eorcs	r5, r9, lr, asr #10
 1bc:	2e342e33 	mrccs	14, 1, r2, cr4, cr3, {1}
 1c0:	47000035 	smladxmi	r0, r5, r0, r0
 1c4:	203a4343 	eorcss	r4, sl, r3, asr #6
 1c8:	554e4728 	strplb	r4, [lr, #-1832]
 1cc:	2e332029 	cdpcs	0, 3, cr2, cr3, cr9, {1}
 1d0:	00352e34 	eoreqs	r2, r5, r4, lsr lr
 1d4:	43434700 	cmpmi	r3, #0	; 0x0
 1d8:	4728203a 	undefined
 1dc:	2029554e 	eorcs	r5, r9, lr, asr #10
 1e0:	2e342e33 	mrccs	14, 1, r2, cr4, cr3, {1}
 1e4:	47000035 	smladxmi	r0, r5, r0, r0
 1e8:	203a4343 	eorcss	r4, sl, r3, asr #6
 1ec:	554e4728 	strplb	r4, [lr, #-1832]
 1f0:	2e332029 	cdpcs	0, 3, cr2, cr3, cr9, {1}
 1f4:	00352e34 	eoreqs	r2, r5, r4, lsr lr
 1f8:	43434700 	cmpmi	r3, #0	; 0x0
 1fc:	4728203a 	undefined
 200:	2029554e 	eorcs	r5, r9, lr, asr #10
 204:	2e342e33 	mrccs	14, 1, r2, cr4, cr3, {1}
 208:	Address 0x208 is out of bounds.

Disassembly of section .debug_aranges:

00000000 <.debug_aranges>:
   0:	0000001c 	andeq	r0, r0, ip, lsl r0
   4:	00000002 	andeq	r0, r0, r2
   8:	00040000 	andeq	r0, r4, r0
   c:	00000000 	andeq	r0, r0, r0
  10:	30005634 	andcc	r5, r0, r4, lsr r6
  14:	000000f8 	streqd	r0, [r0], -r8
	...
  20:	0000001c 	andeq	r0, r0, ip, lsl r0
  24:	01010002 	tsteq	r1, r2
  28:	00040000 	andeq	r0, r4, r0
  2c:	00000000 	andeq	r0, r0, r0
  30:	3000572c 	andcc	r5, r0, ip, lsr #14
  34:	000000cc 	andeq	r0, r0, ip, asr #1
	...
  40:	0000001c 	andeq	r0, r0, ip, lsl r0
  44:	02020002 	andeq	r0, r2, #2	; 0x2
  48:	00040000 	andeq	r0, r4, r0
  4c:	00000000 	andeq	r0, r0, r0
  50:	300057f8 	strccd	r5, [r0], -r8
  54:	0000001c 	andeq	r0, r0, ip, lsl r0
	...
  60:	0000001c 	andeq	r0, r0, ip, lsl r0
  64:	03030002 	tsteq	r3, #2	; 0x2
  68:	00040000 	andeq	r0, r4, r0
  6c:	00000000 	andeq	r0, r0, r0
  70:	30005814 	andcc	r5, r0, r4, lsl r8
  74:	00000388 	andeq	r0, r0, r8, lsl #7
	...
  80:	0000001c 	andeq	r0, r0, ip, lsl r0
  84:	04030002 	streq	r0, [r3], #-2
  88:	00040000 	andeq	r0, r4, r0
  8c:	00000000 	andeq	r0, r0, r0
  90:	30005b9c 	mulcc	r0, ip, fp
  94:	00000580 	andeq	r0, r0, r0, lsl #11
	...
  a0:	0000001c 	andeq	r0, r0, ip, lsl r0
  a4:	05030002 	streq	r0, [r3, #-2]
  a8:	00040000 	andeq	r0, r4, r0
  ac:	00000000 	andeq	r0, r0, r0
  b0:	3000611c 	andcc	r6, r0, ip, lsl r1
  b4:	00000080 	andeq	r0, r0, r0, lsl #1
	...
Disassembly of section .debug_info:

00000000 <.debug_info>:
   0:	000000fd 	streqd	r0, [r0], -sp
   4:	00000002 	andeq	r0, r0, r2
   8:	01040000 	tsteq	r4, r0
   c:	00000000 	andeq	r0, r0, r0
  10:	30005634 	andcc	r5, r0, r4, lsr r6
  14:	3000572c 	andcc	r5, r0, ip, lsr #14
  18:	726f772f 	rsbvc	r7, pc, #12320768	; 0xbc0000
  1c:	6f742f6b 	swivs	0x00742f6b
  20:	2f736c6f 	swics	0x00736c6f
  24:	61657263 	cmnvs	r5, r3, ror #4
  28:	635f6574 	cmpvs	pc, #486539264	; 0x1d000000
  2c:	73736f72 	cmnvc	r3, #456	; 0x1c8
  30:	6c6f6f74 	stcvsl	15, cr6, [pc], #-464
  34:	72632f73 	rsbvc	r2, r3, #460	; 0x1cc
  38:	7473736f 	ldrvcbt	r7, [r3], #-879
  3c:	2d6c6f6f 	stccsl	15, cr6, [ip, #-444]!
  40:	33342e30 	teqcc	r4, #768	; 0x300
  44:	6975622f 	ldmvsdb	r5!, {r0, r1, r2, r3, r5, r9, sp, lr}^
  48:	612f646c 	teqvs	pc, ip, ror #8
  4c:	6c2d6d72 	stcvs	13, cr6, [sp], #-456
  50:	78756e69 	ldmvcda	r5!, {r0, r3, r5, r6, r9, sl, fp, sp, lr}^
  54:	6363672f 	cmnvs	r3, #12320768	; 0xbc0000
  58:	342e332d 	strcct	r3, [lr], #-813
  5c:	672d352e 	strvs	r3, [sp, -lr, lsr #10]!
  60:	6362696c 	cmnvs	r2, #1769472	; 0x1b0000
  64:	332e322d 	teqcc	lr, #-805306366	; 0xd0000002
  68:	672f362e 	strvs	r3, [pc, -lr, lsr #12]!
  6c:	332d6363 	teqcc	sp, #-1946157055	; 0x8c000001
  70:	352e342e 	strcc	r3, [lr, #-1070]!
  74:	6363672f 	cmnvs	r3, #12320768	; 0xbc0000
  78:	6e6f632f 	cdpvs	3, 6, cr6, cr15, cr15, {1}
  7c:	2f676966 	swics	0x00676966
  80:	2f6d7261 	swics	0x006d7261
  84:	3162696c 	cmncc	r2, ip, ror #18
  88:	636e7566 	cmnvs	lr, #427819008	; 0x19800000
  8c:	73612e73 	cmnvc	r1, #1840	; 0x730
  90:	772f006d 	strvc	r0, [pc, -sp, rrx]!
  94:	2f6b726f 	swics	0x006b726f
  98:	6c6f6f74 	stcvsl	15, cr6, [pc], #-464
  9c:	72632f73 	rsbvc	r2, r3, #460	; 0x1cc
  a0:	65746165 	ldrvsb	r6, [r4, #-357]!
  a4:	6f72635f 	swivs	0x0072635f
  a8:	6f747373 	swivs	0x00747373
  ac:	2f736c6f 	swics	0x00736c6f
  b0:	736f7263 	cmnvc	pc, #805306374	; 0x30000006
  b4:	6f6f7473 	swivs	0x006f7473
  b8:	2e302d6c 	cdpcs	13, 3, cr2, cr0, cr12, {3}
  bc:	622f3334 	eorvs	r3, pc, #-805306368	; 0xd0000000
  c0:	646c6975 	strvsbt	r6, [ip], #-2421
  c4:	6d72612f 	ldfvse	f6, [r2, #-188]!
  c8:	6e696c2d 	cdpvs	12, 6, cr6, cr9, cr13, {1}
  cc:	672f7875 	undefined
  d0:	332d6363 	teqcc	sp, #-1946157055	; 0x8c000001
  d4:	352e342e 	strcc	r3, [lr, #-1070]!
  d8:	696c672d 	stmvsdb	ip!, {r0, r2, r3, r5, r8, r9, sl, sp, lr}^
  dc:	322d6362 	eorcc	r6, sp, #-2013265919	; 0x88000001
  e0:	362e332e 	strcct	r3, [lr], -lr, lsr #6
  e4:	6975622f 	ldmvsdb	r5!, {r0, r1, r2, r3, r5, r9, sp, lr}^
  e8:	672d646c 	strvs	r6, [sp, -ip, ror #8]!
  ec:	672f6363 	strvs	r6, [pc, -r3, ror #6]!
  f0:	47006363 	strmi	r6, [r0, -r3, ror #6]
  f4:	4120554e 	teqmi	r0, lr, asr #10
  f8:	2e322053 	mrccs	0, 1, r2, cr2, cr3, {2}
  fc:	01003531 	tsteq	r0, r1, lsr r5
 100:	0000fd80 	andeq	pc, r0, r0, lsl #27
 104:	14000200 	strne	r0, [r0], #-512
 108:	04000000 	streq	r0, [r0]
 10c:	0000e401 	andeq	lr, r0, r1, lsl #8
 110:	00572c00 	subeqs	r2, r7, r0, lsl #24
 114:	0057f830 	subeqs	pc, r7, r0, lsr r8
 118:	6f772f30 	swivs	0x00772f30
 11c:	742f6b72 	strvct	r6, [pc], #2930	; 124 <code_start-0x2ffffedc>
 120:	736c6f6f 	cmnvc	ip, #444	; 0x1bc
 124:	6572632f 	ldrvsb	r6, [r2, #-815]!
 128:	5f657461 	swipl	0x00657461
 12c:	736f7263 	cmnvc	pc, #805306374	; 0x30000006
 130:	6f6f7473 	swivs	0x006f7473
 134:	632f736c 	teqvs	pc, #-1342177279	; 0xb0000001
 138:	73736f72 	cmnvc	r3, #456	; 0x1c8
 13c:	6c6f6f74 	stcvsl	15, cr6, [pc], #-464
 140:	342e302d 	strcct	r3, [lr], #-45
 144:	75622f33 	strvcb	r2, [r2, #-3891]!
 148:	2f646c69 	swics	0x00646c69
 14c:	2d6d7261 	sfmcs	f7, 2, [sp, #-388]!
 150:	756e696c 	strvcb	r6, [lr, #-2412]!
 154:	63672f78 	cmnvs	r7, #480	; 0x1e0
 158:	2e332d63 	cdpcs	13, 3, cr2, cr3, cr3, {3}
 15c:	2d352e34 	ldccs	14, cr2, [r5, #-208]!
 160:	62696c67 	rsbvs	r6, r9, #26368	; 0x6700
 164:	2e322d63 	cdpcs	13, 3, cr2, cr2, cr3, {3}
 168:	2f362e33 	swics	0x00362e33
 16c:	2d636367 	stccsl	3, cr6, [r3, #-412]!
 170:	2e342e33 	mrccs	14, 1, r2, cr4, cr3, {1}
 174:	63672f35 	cmnvs	r7, #212	; 0xd4
 178:	6f632f63 	swivs	0x00632f63
 17c:	6769666e 	strvsb	r6, [r9, -lr, ror #12]!
 180:	6d72612f 	ldfvse	f6, [r2, #-188]!
 184:	62696c2f 	rsbvs	r6, r9, #12032	; 0x2f00
 188:	6e756631 	mrcvs	6, 3, r6, cr5, cr1, {1}
 18c:	612e7363 	teqvs	lr, r3, ror #6
 190:	2f006d73 	swics	0x00006d73
 194:	6b726f77 	blvs	1c9bf78 <code_start-0x2e364088>
 198:	6f6f742f 	swivs	0x006f742f
 19c:	632f736c 	teqvs	pc, #-1342177279	; 0xb0000001
 1a0:	74616572 	strvcbt	r6, [r1], #-1394
 1a4:	72635f65 	rsbvc	r5, r3, #404	; 0x194
 1a8:	7473736f 	ldrvcbt	r7, [r3], #-879
 1ac:	736c6f6f 	cmnvc	ip, #444	; 0x1bc
 1b0:	6f72632f 	swivs	0x0072632f
 1b4:	6f747373 	swivs	0x00747373
 1b8:	302d6c6f 	eorcc	r6, sp, pc, ror #24
 1bc:	2f33342e 	swics	0x0033342e
 1c0:	6c697562 	cfstr64vs	mvdx7, [r9], #-392
 1c4:	72612f64 	rsbvc	r2, r1, #400	; 0x190
 1c8:	696c2d6d 	stmvsdb	ip!, {r0, r2, r3, r5, r6, r8, sl, fp, sp}^
 1cc:	2f78756e 	swics	0x0078756e
 1d0:	2d636367 	stccsl	3, cr6, [r3, #-412]!
 1d4:	2e342e33 	mrccs	14, 1, r2, cr4, cr3, {1}
 1d8:	6c672d35 	stcvsl	13, cr2, [r7], #-212
 1dc:	2d636269 	sfmcs	f6, 2, [r3, #-420]!
 1e0:	2e332e32 	mrccs	14, 1, r2, cr3, cr2, {1}
 1e4:	75622f36 	strvcb	r2, [r2, #-3894]!
 1e8:	2d646c69 	stccsl	12, cr6, [r4, #-420]!
 1ec:	2f636367 	swics	0x00636367
 1f0:	00636367 	rsbeq	r6, r3, r7, ror #6
 1f4:	20554e47 	subcss	r4, r5, r7, asr #28
 1f8:	32205341 	eorcc	r5, r0, #67108865	; 0x4000001
 1fc:	0035312e 	eoreqs	r3, r5, lr, lsr #2
 200:	00fd8001 	rsceqs	r8, sp, r1
 204:	00020000 	andeq	r0, r2, r0
 208:	00000028 	andeq	r0, r0, r8, lsr #32
 20c:	01ba0104 	moveqs	r0, r4, lsl #2
 210:	57f80000 	ldrplb	r0, [r8, r0]!
 214:	58143000 	ldmplda	r4, {ip, sp}
 218:	772f3000 	strvc	r3, [pc, -r0]!
 21c:	2f6b726f 	swics	0x006b726f
 220:	6c6f6f74 	stcvsl	15, cr6, [pc], #-464
 224:	72632f73 	rsbvc	r2, r3, #460	; 0x1cc
 228:	65746165 	ldrvsb	r6, [r4, #-357]!
 22c:	6f72635f 	swivs	0x0072635f
 230:	6f747373 	swivs	0x00747373
 234:	2f736c6f 	swics	0x00736c6f
 238:	736f7263 	cmnvc	pc, #805306374	; 0x30000006
 23c:	6f6f7473 	swivs	0x006f7473
 240:	2e302d6c 	cdpcs	13, 3, cr2, cr0, cr12, {3}
 244:	622f3334 	eorvs	r3, pc, #-805306368	; 0xd0000000
 248:	646c6975 	strvsbt	r6, [ip], #-2421
 24c:	6d72612f 	ldfvse	f6, [r2, #-188]!
 250:	6e696c2d 	cdpvs	12, 6, cr6, cr9, cr13, {1}
 254:	672f7875 	undefined
 258:	332d6363 	teqcc	sp, #-1946157055	; 0x8c000001
 25c:	352e342e 	strcc	r3, [lr, #-1070]!
 260:	696c672d 	stmvsdb	ip!, {r0, r2, r3, r5, r8, r9, sl, sp, lr}^
 264:	322d6362 	eorcc	r6, sp, #-2013265919	; 0x88000001
 268:	362e332e 	strcct	r3, [lr], -lr, lsr #6
 26c:	6363672f 	cmnvs	r3, #12320768	; 0xbc0000
 270:	342e332d 	strcct	r3, [lr], #-813
 274:	672f352e 	strvs	r3, [pc, -lr, lsr #10]!
 278:	632f6363 	teqvs	pc, #-1946157055	; 0x8c000001
 27c:	69666e6f 	stmvsdb	r6!, {r0, r1, r2, r3, r5, r6, r9, sl, fp, sp, lr}^
 280:	72612f67 	rsbvc	r2, r1, #412	; 0x19c
 284:	696c2f6d 	stmvsdb	ip!, {r0, r2, r3, r5, r6, r8, r9, sl, fp, sp}^
 288:	75663162 	strvcb	r3, [r6, #-354]!
 28c:	2e73636e 	cdpcs	3, 7, cr6, cr3, cr14, {3}
 290:	006d7361 	rsbeq	r7, sp, r1, ror #6
 294:	726f772f 	rsbvc	r7, pc, #12320768	; 0xbc0000
 298:	6f742f6b 	swivs	0x00742f6b
 29c:	2f736c6f 	swics	0x00736c6f
 2a0:	61657263 	cmnvs	r5, r3, ror #4
 2a4:	635f6574 	cmpvs	pc, #486539264	; 0x1d000000
 2a8:	73736f72 	cmnvc	r3, #456	; 0x1c8
 2ac:	6c6f6f74 	stcvsl	15, cr6, [pc], #-464
 2b0:	72632f73 	rsbvc	r2, r3, #460	; 0x1cc
 2b4:	7473736f 	ldrvcbt	r7, [r3], #-879
 2b8:	2d6c6f6f 	stccsl	15, cr6, [ip, #-444]!
 2bc:	33342e30 	teqcc	r4, #768	; 0x300
 2c0:	6975622f 	ldmvsdb	r5!, {r0, r1, r2, r3, r5, r9, sp, lr}^
 2c4:	612f646c 	teqvs	pc, ip, ror #8
 2c8:	6c2d6d72 	stcvs	13, cr6, [sp], #-456
 2cc:	78756e69 	ldmvcda	r5!, {r0, r3, r5, r6, r9, sl, fp, sp, lr}^
 2d0:	6363672f 	cmnvs	r3, #12320768	; 0xbc0000
 2d4:	342e332d 	strcct	r3, [lr], #-813
 2d8:	672d352e 	strvs	r3, [sp, -lr, lsr #10]!
 2dc:	6362696c 	cmnvs	r2, #1769472	; 0x1b0000
 2e0:	332e322d 	teqcc	lr, #-805306366	; 0xd0000002
 2e4:	622f362e 	eorvs	r3, pc, #48234496	; 0x2e00000
 2e8:	646c6975 	strvsbt	r6, [ip], #-2421
 2ec:	6363672d 	cmnvs	r3, #11796480	; 0xb40000
 2f0:	6363672f 	cmnvs	r3, #12320768	; 0xbc0000
 2f4:	554e4700 	strplb	r4, [lr, #-1792]
 2f8:	20534120 	subcss	r4, r3, r0, lsr #2
 2fc:	35312e32 	ldrcc	r2, [r1, #-3634]!
 300:	fc800100 	stc2	1, cr0, [r0], {0}
 304:	02000000 	andeq	r0, r0, #0	; 0x0
 308:	00003c00 	andeq	r3, r0, r0, lsl #24
 30c:	8a010400 	bhi	41314 <code_start-0x2ffbecec>
 310:	14000002 	strne	r0, [r0], #-2
 314:	9c300058 	ldcls	0, cr0, [r0], #-352
 318:	2f30005b 	swics	0x0030005b
 31c:	6b726f77 	blvs	1c9c100 <code_start-0x2e363f00>
 320:	6f6f742f 	swivs	0x006f742f
 324:	632f736c 	teqvs	pc, #-1342177279	; 0xb0000001
 328:	74616572 	strvcbt	r6, [r1], #-1394
 32c:	72635f65 	rsbvc	r5, r3, #404	; 0x194
 330:	7473736f 	ldrvcbt	r7, [r3], #-879
 334:	736c6f6f 	cmnvc	ip, #444	; 0x1bc
 338:	6f72632f 	swivs	0x0072632f
 33c:	6f747373 	swivs	0x00747373
 340:	302d6c6f 	eorcc	r6, sp, pc, ror #24
 344:	2f33342e 	swics	0x0033342e
 348:	6c697562 	cfstr64vs	mvdx7, [r9], #-392
 34c:	72612f64 	rsbvc	r2, r1, #400	; 0x190
 350:	696c2d6d 	stmvsdb	ip!, {r0, r2, r3, r5, r6, r8, sl, fp, sp}^
 354:	2f78756e 	swics	0x0078756e
 358:	2d636367 	stccsl	3, cr6, [r3, #-412]!
 35c:	2e342e33 	mrccs	14, 1, r2, cr4, cr3, {1}
 360:	6c672d35 	stcvsl	13, cr2, [r7], #-212
 364:	2d636269 	sfmcs	f6, 2, [r3, #-420]!
 368:	2e332e32 	mrccs	14, 1, r2, cr3, cr2, {1}
 36c:	63672f36 	cmnvs	r7, #216	; 0xd8
 370:	2e332d63 	cdpcs	13, 3, cr2, cr3, cr3, {3}
 374:	2f352e34 	swics	0x00352e34
 378:	2f636367 	swics	0x00636367
 37c:	666e6f63 	strvsbt	r6, [lr], -r3, ror #30
 380:	612f6769 	teqvs	pc, r9, ror #14
 384:	692f6d72 	stmvsdb	pc!, {r1, r4, r5, r6, r8, sl, fp, sp, lr}
 388:	37656565 	strccb	r6, [r5, -r5, ror #10]!
 38c:	642d3435 	strvst	r3, [sp], #-1077
 390:	00532e66 	subeqs	r2, r3, r6, ror #28
 394:	726f772f 	rsbvc	r7, pc, #12320768	; 0xbc0000
 398:	6f742f6b 	swivs	0x00742f6b
 39c:	2f736c6f 	swics	0x00736c6f
 3a0:	61657263 	cmnvs	r5, r3, ror #4
 3a4:	635f6574 	cmpvs	pc, #486539264	; 0x1d000000
 3a8:	73736f72 	cmnvc	r3, #456	; 0x1c8
 3ac:	6c6f6f74 	stcvsl	15, cr6, [pc], #-464
 3b0:	72632f73 	rsbvc	r2, r3, #460	; 0x1cc
 3b4:	7473736f 	ldrvcbt	r7, [r3], #-879
 3b8:	2d6c6f6f 	stccsl	15, cr6, [ip, #-444]!
 3bc:	33342e30 	teqcc	r4, #768	; 0x300
 3c0:	6975622f 	ldmvsdb	r5!, {r0, r1, r2, r3, r5, r9, sp, lr}^
 3c4:	612f646c 	teqvs	pc, ip, ror #8
 3c8:	6c2d6d72 	stcvs	13, cr6, [sp], #-456
 3cc:	78756e69 	ldmvcda	r5!, {r0, r3, r5, r6, r9, sl, fp, sp, lr}^
 3d0:	6363672f 	cmnvs	r3, #12320768	; 0xbc0000
 3d4:	342e332d 	strcct	r3, [lr], #-813
 3d8:	672d352e 	strvs	r3, [sp, -lr, lsr #10]!
 3dc:	6362696c 	cmnvs	r2, #1769472	; 0x1b0000
 3e0:	332e322d 	teqcc	lr, #-805306366	; 0xd0000002
 3e4:	622f362e 	eorvs	r3, pc, #48234496	; 0x2e00000
 3e8:	646c6975 	strvsbt	r6, [ip], #-2421
 3ec:	6363672d 	cmnvs	r3, #11796480	; 0xb40000
 3f0:	6363672f 	cmnvs	r3, #12320768	; 0xbc0000
 3f4:	554e4700 	strplb	r4, [lr, #-1792]
 3f8:	20534120 	subcss	r4, r3, r0, lsr #2
 3fc:	35312e32 	ldrcc	r2, [r1, #-3634]!
 400:	fc800100 	stc2	1, cr0, [r0], {0}
 404:	02000000 	andeq	r0, r0, #0	; 0x0
 408:	00005000 	andeq	r5, r0, r0
 40c:	88010400 	stmhida	r1, {sl}
 410:	9c000004 	stcls	0, cr0, [r0], {4}
 414:	1c30005b 	ldcne	0, cr0, [r0], #-364
 418:	2f300061 	swics	0x00300061
 41c:	6b726f77 	blvs	1c9c200 <code_start-0x2e363e00>
 420:	6f6f742f 	swivs	0x006f742f
 424:	632f736c 	teqvs	pc, #-1342177279	; 0xb0000001
 428:	74616572 	strvcbt	r6, [r1], #-1394
 42c:	72635f65 	rsbvc	r5, r3, #404	; 0x194
 430:	7473736f 	ldrvcbt	r7, [r3], #-879
 434:	736c6f6f 	cmnvc	ip, #444	; 0x1bc
 438:	6f72632f 	swivs	0x0072632f
 43c:	6f747373 	swivs	0x00747373
 440:	302d6c6f 	eorcc	r6, sp, pc, ror #24
 444:	2f33342e 	swics	0x0033342e
 448:	6c697562 	cfstr64vs	mvdx7, [r9], #-392
 44c:	72612f64 	rsbvc	r2, r1, #400	; 0x190
 450:	696c2d6d 	stmvsdb	ip!, {r0, r2, r3, r5, r6, r8, sl, fp, sp}^
 454:	2f78756e 	swics	0x0078756e
 458:	2d636367 	stccsl	3, cr6, [r3, #-412]!
 45c:	2e342e33 	mrccs	14, 1, r2, cr4, cr3, {1}
 460:	6c672d35 	stcvsl	13, cr2, [r7], #-212
 464:	2d636269 	sfmcs	f6, 2, [r3, #-420]!
 468:	2e332e32 	mrccs	14, 1, r2, cr3, cr2, {1}
 46c:	63672f36 	cmnvs	r7, #216	; 0xd8
 470:	2e332d63 	cdpcs	13, 3, cr2, cr3, cr3, {3}
 474:	2f352e34 	swics	0x00352e34
 478:	2f636367 	swics	0x00636367
 47c:	666e6f63 	strvsbt	r6, [lr], -r3, ror #30
 480:	612f6769 	teqvs	pc, r9, ror #14
 484:	692f6d72 	stmvsdb	pc!, {r1, r4, r5, r6, r8, sl, fp, sp, lr}
 488:	37656565 	strccb	r6, [r5, -r5, ror #10]!
 48c:	642d3435 	strvst	r3, [sp], #-1077
 490:	00532e66 	subeqs	r2, r3, r6, ror #28
 494:	726f772f 	rsbvc	r7, pc, #12320768	; 0xbc0000
 498:	6f742f6b 	swivs	0x00742f6b
 49c:	2f736c6f 	swics	0x00736c6f
 4a0:	61657263 	cmnvs	r5, r3, ror #4
 4a4:	635f6574 	cmpvs	pc, #486539264	; 0x1d000000
 4a8:	73736f72 	cmnvc	r3, #456	; 0x1c8
 4ac:	6c6f6f74 	stcvsl	15, cr6, [pc], #-464
 4b0:	72632f73 	rsbvc	r2, r3, #460	; 0x1cc
 4b4:	7473736f 	ldrvcbt	r7, [r3], #-879
 4b8:	2d6c6f6f 	stccsl	15, cr6, [ip, #-444]!
 4bc:	33342e30 	teqcc	r4, #768	; 0x300
 4c0:	6975622f 	ldmvsdb	r5!, {r0, r1, r2, r3, r5, r9, sp, lr}^
 4c4:	612f646c 	teqvs	pc, ip, ror #8
 4c8:	6c2d6d72 	stcvs	13, cr6, [sp], #-456
 4cc:	78756e69 	ldmvcda	r5!, {r0, r3, r5, r6, r9, sl, fp, sp, lr}^
 4d0:	6363672f 	cmnvs	r3, #12320768	; 0xbc0000
 4d4:	342e332d 	strcct	r3, [lr], #-813
 4d8:	672d352e 	strvs	r3, [sp, -lr, lsr #10]!
 4dc:	6362696c 	cmnvs	r2, #1769472	; 0x1b0000
 4e0:	332e322d 	teqcc	lr, #-805306366	; 0xd0000002
 4e4:	622f362e 	eorvs	r3, pc, #48234496	; 0x2e00000
 4e8:	646c6975 	strvsbt	r6, [ip], #-2421
 4ec:	6363672d 	cmnvs	r3, #11796480	; 0xb40000
 4f0:	6363672f 	cmnvs	r3, #12320768	; 0xbc0000
 4f4:	554e4700 	strplb	r4, [lr, #-1792]
 4f8:	20534120 	subcss	r4, r3, r0, lsr #2
 4fc:	35312e32 	ldrcc	r2, [r1, #-3634]!
 500:	fc800100 	stc2	1, cr0, [r0], {0}
 504:	02000000 	andeq	r0, r0, #0	; 0x0
 508:	00006400 	andeq	r6, r0, r0, lsl #8
 50c:	1e010400 	cfcpysne	mvf0, mvf1
 510:	1c000007 	stcne	0, cr0, [r0], {7}
 514:	9c300061 	ldcls	0, cr0, [r0], #-388
 518:	2f300061 	swics	0x00300061
 51c:	6b726f77 	blvs	1c9c300 <code_start-0x2e363d00>
 520:	6f6f742f 	swivs	0x006f742f
 524:	632f736c 	teqvs	pc, #-1342177279	; 0xb0000001
 528:	74616572 	strvcbt	r6, [r1], #-1394
 52c:	72635f65 	rsbvc	r5, r3, #404	; 0x194
 530:	7473736f 	ldrvcbt	r7, [r3], #-879
 534:	736c6f6f 	cmnvc	ip, #444	; 0x1bc
 538:	6f72632f 	swivs	0x0072632f
 53c:	6f747373 	swivs	0x00747373
 540:	302d6c6f 	eorcc	r6, sp, pc, ror #24
 544:	2f33342e 	swics	0x0033342e
 548:	6c697562 	cfstr64vs	mvdx7, [r9], #-392
 54c:	72612f64 	rsbvc	r2, r1, #400	; 0x190
 550:	696c2d6d 	stmvsdb	ip!, {r0, r2, r3, r5, r6, r8, sl, fp, sp}^
 554:	2f78756e 	swics	0x0078756e
 558:	2d636367 	stccsl	3, cr6, [r3, #-412]!
 55c:	2e342e33 	mrccs	14, 1, r2, cr4, cr3, {1}
 560:	6c672d35 	stcvsl	13, cr2, [r7], #-212
 564:	2d636269 	sfmcs	f6, 2, [r3, #-420]!
 568:	2e332e32 	mrccs	14, 1, r2, cr3, cr2, {1}
 56c:	63672f36 	cmnvs	r7, #216	; 0xd8
 570:	2e332d63 	cdpcs	13, 3, cr2, cr3, cr3, {3}
 574:	2f352e34 	swics	0x00352e34
 578:	2f636367 	swics	0x00636367
 57c:	666e6f63 	strvsbt	r6, [lr], -r3, ror #30
 580:	612f6769 	teqvs	pc, r9, ror #14
 584:	692f6d72 	stmvsdb	pc!, {r1, r4, r5, r6, r8, sl, fp, sp, lr}
 588:	37656565 	strccb	r6, [r5, -r5, ror #10]!
 58c:	642d3435 	strvst	r3, [sp], #-1077
 590:	00532e66 	subeqs	r2, r3, r6, ror #28
 594:	726f772f 	rsbvc	r7, pc, #12320768	; 0xbc0000
 598:	6f742f6b 	swivs	0x00742f6b
 59c:	2f736c6f 	swics	0x00736c6f
 5a0:	61657263 	cmnvs	r5, r3, ror #4
 5a4:	635f6574 	cmpvs	pc, #486539264	; 0x1d000000
 5a8:	73736f72 	cmnvc	r3, #456	; 0x1c8
 5ac:	6c6f6f74 	stcvsl	15, cr6, [pc], #-464
 5b0:	72632f73 	rsbvc	r2, r3, #460	; 0x1cc
 5b4:	7473736f 	ldrvcbt	r7, [r3], #-879
 5b8:	2d6c6f6f 	stccsl	15, cr6, [ip, #-444]!
 5bc:	33342e30 	teqcc	r4, #768	; 0x300
 5c0:	6975622f 	ldmvsdb	r5!, {r0, r1, r2, r3, r5, r9, sp, lr}^
 5c4:	612f646c 	teqvs	pc, ip, ror #8
 5c8:	6c2d6d72 	stcvs	13, cr6, [sp], #-456
 5cc:	78756e69 	ldmvcda	r5!, {r0, r3, r5, r6, r9, sl, fp, sp, lr}^
 5d0:	6363672f 	cmnvs	r3, #12320768	; 0xbc0000
 5d4:	342e332d 	strcct	r3, [lr], #-813
 5d8:	672d352e 	strvs	r3, [sp, -lr, lsr #10]!
 5dc:	6362696c 	cmnvs	r2, #1769472	; 0x1b0000
 5e0:	332e322d 	teqcc	lr, #-805306366	; 0xd0000002
 5e4:	622f362e 	eorvs	r3, pc, #48234496	; 0x2e00000
 5e8:	646c6975 	strvsbt	r6, [ip], #-2421
 5ec:	6363672d 	cmnvs	r3, #11796480	; 0xb40000
 5f0:	6363672f 	cmnvs	r3, #12320768	; 0xbc0000
 5f4:	554e4700 	strplb	r4, [lr, #-1792]
 5f8:	20534120 	subcss	r4, r3, r0, lsr #2
 5fc:	35312e32 	ldrcc	r2, [r1, #-3634]!
 600:	Address 0x600 is out of bounds.

Disassembly of section .debug_abbrev:

00000000 <.debug_abbrev>:
   0:	10001101 	andne	r1, r0, r1, lsl #2
   4:	12011106 	andne	r1, r1, #-2147483647	; 0x80000001
   8:	1b080301 	blne	200c14 <code_start-0x2fdff3ec>
   c:	13082508 	tstne	r8, #33554432	; 0x2000000
  10:	00000005 	andeq	r0, r0, r5
  14:	10001101 	andne	r1, r0, r1, lsl #2
  18:	12011106 	andne	r1, r1, #-2147483647	; 0x80000001
  1c:	1b080301 	blne	200c28 <code_start-0x2fdff3d8>
  20:	13082508 	tstne	r8, #33554432	; 0x2000000
  24:	00000005 	andeq	r0, r0, r5
  28:	10001101 	andne	r1, r0, r1, lsl #2
  2c:	12011106 	andne	r1, r1, #-2147483647	; 0x80000001
  30:	1b080301 	blne	200c3c <code_start-0x2fdff3c4>
  34:	13082508 	tstne	r8, #33554432	; 0x2000000
  38:	00000005 	andeq	r0, r0, r5
  3c:	10001101 	andne	r1, r0, r1, lsl #2
  40:	12011106 	andne	r1, r1, #-2147483647	; 0x80000001
  44:	1b080301 	blne	200c50 <code_start-0x2fdff3b0>
  48:	13082508 	tstne	r8, #33554432	; 0x2000000
  4c:	00000005 	andeq	r0, r0, r5
  50:	10001101 	andne	r1, r0, r1, lsl #2
  54:	12011106 	andne	r1, r1, #-2147483647	; 0x80000001
  58:	1b080301 	blne	200c64 <code_start-0x2fdff39c>
  5c:	13082508 	tstne	r8, #33554432	; 0x2000000
  60:	00000005 	andeq	r0, r0, r5
  64:	10001101 	andne	r1, r0, r1, lsl #2
  68:	12011106 	andne	r1, r1, #-2147483647	; 0x80000001
  6c:	1b080301 	blne	200c78 <code_start-0x2fdff388>
  70:	13082508 	tstne	r8, #33554432	; 0x2000000
  74:	00000005 	andeq	r0, r0, r5
Disassembly of section .debug_line:

00000000 <.debug_line>:
   0:	000000c6 	andeq	r0, r0, r6, asr #1
   4:	008d0002 	addeq	r0, sp, r2
   8:	01020000 	tsteq	r2, r0
   c:	000a0efb 	streqd	r0, [sl], -fp
  10:	01010101 	tsteq	r1, r1, lsl #2
  14:	01000000 	tsteq	r0, r0
  18:	726f772f 	rsbvc	r7, pc, #12320768	; 0xbc0000
  1c:	6f742f6b 	swivs	0x00742f6b
  20:	2f736c6f 	swics	0x00736c6f
  24:	61657263 	cmnvs	r5, r3, ror #4
  28:	635f6574 	cmpvs	pc, #486539264	; 0x1d000000
  2c:	73736f72 	cmnvc	r3, #456	; 0x1c8
  30:	6c6f6f74 	stcvsl	15, cr6, [pc], #-464
  34:	72632f73 	rsbvc	r2, r3, #460	; 0x1cc
  38:	7473736f 	ldrvcbt	r7, [r3], #-879
  3c:	2d6c6f6f 	stccsl	15, cr6, [ip, #-444]!
  40:	33342e30 	teqcc	r4, #768	; 0x300
  44:	6975622f 	ldmvsdb	r5!, {r0, r1, r2, r3, r5, r9, sp, lr}^
  48:	612f646c 	teqvs	pc, ip, ror #8
  4c:	6c2d6d72 	stcvs	13, cr6, [sp], #-456
  50:	78756e69 	ldmvcda	r5!, {r0, r3, r5, r6, r9, sl, fp, sp, lr}^
  54:	6363672f 	cmnvs	r3, #12320768	; 0xbc0000
  58:	342e332d 	strcct	r3, [lr], #-813
  5c:	672d352e 	strvs	r3, [sp, -lr, lsr #10]!
  60:	6362696c 	cmnvs	r2, #1769472	; 0x1b0000
  64:	332e322d 	teqcc	lr, #-805306366	; 0xd0000002
  68:	672f362e 	strvs	r3, [pc, -lr, lsr #12]!
  6c:	332d6363 	teqcc	sp, #-1946157055	; 0x8c000001
  70:	352e342e 	strcc	r3, [lr, #-1070]!
  74:	6363672f 	cmnvs	r3, #12320768	; 0xbc0000
  78:	6e6f632f 	cdpvs	3, 6, cr6, cr15, cr15, {1}
  7c:	2f676966 	swics	0x00676966
  80:	006d7261 	rsbeq	r7, sp, r1, ror #4
  84:	62696c00 	rsbvs	r6, r9, #0	; 0x0
  88:	6e756631 	mrcvs	6, 3, r6, cr5, cr1, {1}
  8c:	612e7363 	teqvs	lr, r3, ror #6
  90:	01006d73 	tsteq	r0, r3, ror sp
  94:	00000000 	andeq	r0, r0, r0
  98:	56340205 	ldrplt	r0, [r4], -r5, lsl #4
  9c:	ce033000 	cdpgt	0, 0, cr3, cr3, cr0, {0}
  a0:	2c2c0104 	stfcss	f0, [ip], #-16
  a4:	2c2c2c2c 	stccs	12, cr2, [ip], #-176
  a8:	2b7dab03 	blcs	1f6acbc <code_start-0x2e095344>
  ac:	0202d903 	andeq	sp, r2, #49152	; 0xc000
  b0:	2d2c013e 	stfcss	f0, [ip, #-248]!
  b4:	de032c2c 	cdple	12, 0, cr2, cr3, cr12, {1}
  b8:	a6032b7d 	undefined
  bc:	2c8d0802 	stccs	8, cr0, [sp], {2}
  c0:	7c92032f 	ldcvc	3, cr0, [r2], {47}
  c4:	00020263 	andeq	r0, r2, r3, ror #4
  c8:	00160101 	andeqs	r0, r6, r1, lsl #2
  cc:	00020000 	andeq	r0, r2, r0
  d0:	00000010 	andeq	r0, r0, r0, lsl r0
  d4:	0efb0102 	cdpeq	1, 15, cr0, cr11, cr2, {0}
  d8:	0101000a 	tsteq	r1, sl
  dc:	00000101 	andeq	r0, r0, r1, lsl #2
  e0:	00000100 	andeq	r0, r0, r0, lsl #2
  e4:	000000b8 	streqh	r0, [r0], -r8
  e8:	008d0002 	addeq	r0, sp, r2
  ec:	01020000 	tsteq	r2, r0
  f0:	000a0efb 	streqd	r0, [sl], -fp
  f4:	01010101 	tsteq	r1, r1, lsl #2
  f8:	01000000 	tsteq	r0, r0
  fc:	726f772f 	rsbvc	r7, pc, #12320768	; 0xbc0000
 100:	6f742f6b 	swivs	0x00742f6b
 104:	2f736c6f 	swics	0x00736c6f
 108:	61657263 	cmnvs	r5, r3, ror #4
 10c:	635f6574 	cmpvs	pc, #486539264	; 0x1d000000
 110:	73736f72 	cmnvc	r3, #456	; 0x1c8
 114:	6c6f6f74 	stcvsl	15, cr6, [pc], #-464
 118:	72632f73 	rsbvc	r2, r3, #460	; 0x1cc
 11c:	7473736f 	ldrvcbt	r7, [r3], #-879
 120:	2d6c6f6f 	stccsl	15, cr6, [ip, #-444]!
 124:	33342e30 	teqcc	r4, #768	; 0x300
 128:	6975622f 	ldmvsdb	r5!, {r0, r1, r2, r3, r5, r9, sp, lr}^
 12c:	612f646c 	teqvs	pc, ip, ror #8
 130:	6c2d6d72 	stcvs	13, cr6, [sp], #-456
 134:	78756e69 	ldmvcda	r5!, {r0, r3, r5, r6, r9, sl, fp, sp, lr}^
 138:	6363672f 	cmnvs	r3, #12320768	; 0xbc0000
 13c:	342e332d 	strcct	r3, [lr], #-813
 140:	672d352e 	strvs	r3, [sp, -lr, lsr #10]!
 144:	6362696c 	cmnvs	r2, #1769472	; 0x1b0000
 148:	332e322d 	teqcc	lr, #-805306366	; 0xd0000002
 14c:	672f362e 	strvs	r3, [pc, -lr, lsr #12]!
 150:	332d6363 	teqcc	sp, #-1946157055	; 0x8c000001
 154:	352e342e 	strcc	r3, [lr, #-1070]!
 158:	6363672f 	cmnvs	r3, #12320768	; 0xbc0000
 15c:	6e6f632f 	cdpvs	3, 6, cr6, cr15, cr15, {1}
 160:	2f676966 	swics	0x00676966
 164:	006d7261 	rsbeq	r7, sp, r1, ror #4
 168:	62696c00 	rsbvs	r6, r9, #0	; 0x0
 16c:	6e756631 	mrcvs	6, 3, r6, cr5, cr1, {1}
 170:	612e7363 	teqvs	lr, r3, ror #6
 174:	01006d73 	tsteq	r0, r3, ror sp
 178:	00000000 	andeq	r0, r0, r0
 17c:	572c0205 	strpl	r0, [ip, -r5, lsl #4]!
 180:	81033000 	tsthi	r3, r0
 184:	2c2c0105 	stfcss	f0, [ip], #-20
 188:	2c2c2c2c 	stccs	12, cr2, [ip], #-176
 18c:	2b7dd403 	blcs	1f751a0 <code_start-0x2e08ae60>
 190:	0202b003 	andeq	fp, r2, #3	; 0x3
 194:	032f014e 	teqeq	pc, #-2147483629	; 0x80000013
 198:	02637be9 	rsbeq	r7, r3, #238592	; 0x3a400
 19c:	01010002 	tsteq	r1, r2
 1a0:	00000016 	andeq	r0, r0, r6, lsl r0
 1a4:	00100002 	andeqs	r0, r0, r2
 1a8:	01020000 	tsteq	r2, r0
 1ac:	000a0efb 	streqd	r0, [sl], -fp
 1b0:	01010101 	tsteq	r1, r1, lsl #2
 1b4:	01000000 	tsteq	r0, r0
 1b8:	00b20000 	adceqs	r0, r2, r0
 1bc:	00020000 	andeq	r0, r2, r0
 1c0:	0000008d 	andeq	r0, r0, sp, lsl #1
 1c4:	0efb0102 	cdpeq	1, 15, cr0, cr11, cr2, {0}
 1c8:	0101000a 	tsteq	r1, sl
 1cc:	00000101 	andeq	r0, r0, r1, lsl #2
 1d0:	772f0100 	strvc	r0, [pc, -r0, lsl #2]!
 1d4:	2f6b726f 	swics	0x006b726f
 1d8:	6c6f6f74 	stcvsl	15, cr6, [pc], #-464
 1dc:	72632f73 	rsbvc	r2, r3, #460	; 0x1cc
 1e0:	65746165 	ldrvsb	r6, [r4, #-357]!
 1e4:	6f72635f 	swivs	0x0072635f
 1e8:	6f747373 	swivs	0x00747373
 1ec:	2f736c6f 	swics	0x00736c6f
 1f0:	736f7263 	cmnvc	pc, #805306374	; 0x30000006
 1f4:	6f6f7473 	swivs	0x006f7473
 1f8:	2e302d6c 	cdpcs	13, 3, cr2, cr0, cr12, {3}
 1fc:	622f3334 	eorvs	r3, pc, #-805306368	; 0xd0000000
 200:	646c6975 	strvsbt	r6, [ip], #-2421
 204:	6d72612f 	ldfvse	f6, [r2, #-188]!
 208:	6e696c2d 	cdpvs	12, 6, cr6, cr9, cr13, {1}
 20c:	672f7875 	undefined
 210:	332d6363 	teqcc	sp, #-1946157055	; 0x8c000001
 214:	352e342e 	strcc	r3, [lr, #-1070]!
 218:	696c672d 	stmvsdb	ip!, {r0, r2, r3, r5, r8, r9, sl, sp, lr}^
 21c:	322d6362 	eorcc	r6, sp, #-2013265919	; 0x88000001
 220:	362e332e 	strcct	r3, [lr], -lr, lsr #6
 224:	6363672f 	cmnvs	r3, #12320768	; 0xbc0000
 228:	342e332d 	strcct	r3, [lr], #-813
 22c:	672f352e 	strvs	r3, [pc, -lr, lsr #10]!
 230:	632f6363 	teqvs	pc, #-1946157055	; 0x8c000001
 234:	69666e6f 	stmvsdb	r6!, {r0, r1, r2, r3, r5, r6, r9, sl, fp, sp, lr}^
 238:	72612f67 	rsbvc	r2, r1, #412	; 0x19c
 23c:	6c00006d 	stcvs	0, cr0, [r0], {109}
 240:	66316269 	ldrvst	r6, [r1], -r9, ror #4
 244:	73636e75 	cmnvc	r3, #1872	; 0x750
 248:	6d73612e 	ldfvse	f6, [r3, #-184]!
 24c:	00000100 	andeq	r0, r0, r0, lsl #2
 250:	02050000 	andeq	r0, r5, #0	; 0x0
 254:	300057f8 	strccd	r5, [r0], -r8
 258:	0106b403 	tsteq	r6, r3, lsl #8
 25c:	c2032c2c 	andgt	r2, r3, #11264	; 0x2c00
 260:	c0032b7a 	andgt	r2, r3, sl, ror fp
 264:	032c2b05 	teqeq	ip, #5120	; 0x1400
 268:	022b7abf 	eoreq	r7, fp, #782336	; 0xbf000
 26c:	01010002 	tsteq	r1, r2
 270:	00000016 	andeq	r0, r0, r6, lsl r0
 274:	00100002 	andeqs	r0, r0, r2
 278:	01020000 	tsteq	r2, r0
 27c:	000a0efb 	streqd	r0, [sl], -fp
 280:	01010101 	tsteq	r1, r1, lsl #2
 284:	01000000 	tsteq	r0, r0
 288:	01e00000 	mvneq	r0, r0
 28c:	00020000 	andeq	r0, r2, r0
 290:	0000009d 	muleq	r0, sp, r0
 294:	0efb0102 	cdpeq	1, 15, cr0, cr11, cr2, {0}
 298:	0101000a 	tsteq	r1, sl
 29c:	00000101 	andeq	r0, r0, r1, lsl #2
 2a0:	772f0100 	strvc	r0, [pc, -r0, lsl #2]!
 2a4:	2f6b726f 	swics	0x006b726f
 2a8:	6c6f6f74 	stcvsl	15, cr6, [pc], #-464
 2ac:	72632f73 	rsbvc	r2, r3, #460	; 0x1cc
 2b0:	65746165 	ldrvsb	r6, [r4, #-357]!
 2b4:	6f72635f 	swivs	0x0072635f
 2b8:	6f747373 	swivs	0x00747373
 2bc:	2f736c6f 	swics	0x00736c6f
 2c0:	736f7263 	cmnvc	pc, #805306374	; 0x30000006
 2c4:	6f6f7473 	swivs	0x006f7473
 2c8:	2e302d6c 	cdpcs	13, 3, cr2, cr0, cr12, {3}
 2cc:	622f3334 	eorvs	r3, pc, #-805306368	; 0xd0000000
 2d0:	646c6975 	strvsbt	r6, [ip], #-2421
 2d4:	6d72612f 	ldfvse	f6, [r2, #-188]!
 2d8:	6e696c2d 	cdpvs	12, 6, cr6, cr9, cr13, {1}
 2dc:	672f7875 	undefined
 2e0:	332d6363 	teqcc	sp, #-1946157055	; 0x8c000001
 2e4:	352e342e 	strcc	r3, [lr, #-1070]!
 2e8:	696c672d 	stmvsdb	ip!, {r0, r2, r3, r5, r8, r9, sl, sp, lr}^
 2ec:	322d6362 	eorcc	r6, sp, #-2013265919	; 0x88000001
 2f0:	362e332e 	strcct	r3, [lr], -lr, lsr #6
 2f4:	6363672f 	cmnvs	r3, #12320768	; 0xbc0000
 2f8:	342e332d 	strcct	r3, [lr], #-813
 2fc:	672f352e 	strvs	r3, [pc, -lr, lsr #10]!
 300:	632f6363 	teqvs	pc, #-1946157055	; 0x8c000001
 304:	69666e6f 	stmvsdb	r6!, {r0, r1, r2, r3, r5, r6, r9, sl, fp, sp, lr}^
 308:	72612f67 	rsbvc	r2, r1, #412	; 0x19c
 30c:	6900006d 	stmvsdb	r0, {r0, r2, r3, r5, r6}
 310:	37656565 	strccb	r6, [r5, -r5, ror #10]!
 314:	642d3435 	strvst	r3, [sp], #-1077
 318:	00532e66 	subeqs	r2, r3, r6, ror #28
 31c:	6c000001 	stcvs	0, cr0, [r0], {1}
 320:	66316269 	ldrvst	r6, [r1], -r9, ror #4
 324:	73636e75 	cmnvc	r3, #1872	; 0x750
 328:	6d73612e 	ldfvse	f6, [r3, #-184]!
 32c:	00000100 	andeq	r0, r0, r0, lsl #2
 330:	02050000 	andeq	r0, r5, #0	; 0x0
 334:	30005814 	andcc	r5, r0, r4, lsl r8
 338:	0100c903 	tsteq	r0, r3, lsl #18
 33c:	2c2c2c33 	stccs	12, cr2, [ip], #-204
 340:	2c2c2c2f 	stccs	12, cr2, [ip], #-188
 344:	2c2e2d2c 	stccs	13, cr2, [lr], #-176
 348:	2c2e2c2c 	stccs	12, cr2, [lr], #-176
 34c:	2c2c2f2c 	stccs	15, cr2, [ip], #-176
 350:	2c2c2c2c 	stccs	12, cr2, [ip], #-176
 354:	312c2c2c 	teqcc	ip, ip, lsr #24
 358:	04270204 	streqt	r0, [r7], #-516
 35c:	2c2c3301 	stccs	3, cr3, [ip], #-4
 360:	2d2c2c2c 	stccs	12, cr2, [ip, #-176]!
 364:	2c2c2c2c 	stccs	12, cr2, [ip], #-176
 368:	302c2f2c 	eorcc	r2, ip, ip, lsr #30
 36c:	2c2c2c2c 	stccs	12, cr2, [ip], #-176
 370:	2c2c2c2c 	stccs	12, cr2, [ip], #-176
 374:	2c2c2e2c 	stccs	14, cr2, [ip], #-176
 378:	2c2c2c2c 	stccs	12, cr2, [ip], #-176
 37c:	2c2c2c2c 	stccs	12, cr2, [ip], #-176
 380:	2c2e2c2c 	stccs	12, cr2, [lr], #-176
 384:	2c2c2c2f 	stccs	12, cr2, [ip], #-188
 388:	2c2c2f2c 	stccs	15, cr2, [ip], #-176
 38c:	2e2c2c2c 	cdpcs	12, 2, cr2, cr12, cr12, {1}
 390:	2c2c2c2c 	stccs	12, cr2, [ip], #-176
 394:	2c2c2c2d 	stccs	12, cr2, [ip], #-180
 398:	2c2c312c 	stfcss	f3, [ip], #-176
 39c:	2e2c2f2c 	cdpcs	15, 2, cr2, cr12, cr12, {1}
 3a0:	2c2c2f2c 	stccs	15, cr2, [ip], #-176
 3a4:	90030204 	andls	r0, r3, r4, lsl #4
 3a8:	01042b7f 	tsteq	r4, pc, ror fp
 3ac:	2b00f803 	blcs	3e3c0 <code_start-0x2ffc1c40>
 3b0:	2c2c2c2c 	stccs	12, cr2, [ip], #-176
 3b4:	2c2c2c2c 	stccs	12, cr2, [ip], #-176
 3b8:	2c2c2c2c 	stccs	12, cr2, [ip], #-176
 3bc:	2c2c2c2c 	stccs	12, cr2, [ip], #-176
 3c0:	032c2c2c 	teqeq	ip, #11264	; 0x2c00
 3c4:	2c2c2b0e 	stccs	11, cr2, [ip], #-56
 3c8:	2c2c2f2c 	stccs	15, cr2, [ip], #-176
 3cc:	2c2f2c2c 	stccs	12, cr2, [pc], #-176
 3d0:	2e2c2c2c 	cdpcs	12, 2, cr2, cr12, cr12, {1}
 3d4:	2c2c2f2c 	stccs	15, cr2, [ip], #-176
 3d8:	2c2e2c2c 	stccs	12, cr2, [lr], #-176
 3dc:	042c2c2c 	streqt	r2, [ip], #-3116
 3e0:	7ec10302 	cdpvc	3, 12, cr0, cr1, cr2, {0}
 3e4:	0301042b 	tsteq	r1, #721420288	; 0x2b000000
 3e8:	2c2b01c4 	stfcss	f0, [fp], #-784
 3ec:	042c2c2c 	streqt	r2, [ip], #-3116
 3f0:	7eb80302 	cdpvc	3, 11, cr0, cr8, cr2, {0}
 3f4:	0301042b 	tsteq	r1, #721420288	; 0x2b000000
 3f8:	2c2b01cd 	stfcss	f0, [fp], #-820
 3fc:	b2030204 	andlt	r0, r3, #1073741824	; 0x40000000
 400:	01042b7e 	tsteq	r4, lr, ror fp
 404:	2b01d303 	blcs	75018 <code_start-0x2ff8afe8>
 408:	2c2c2c2c 	stccs	12, cr2, [ip], #-176
 40c:	2c2c2f2c 	stccs	15, cr2, [ip], #-176
 410:	2c2c2c2c 	stccs	12, cr2, [ip], #-176
 414:	042c2c2f 	streqt	r2, [ip], #-3119
 418:	7e980302 	cdpvc	3, 9, cr0, cr8, cr2, {0}
 41c:	0301042b 	tsteq	r1, #721420288	; 0x2b000000
 420:	2c2b01f2 	stfcss	f0, [fp], #-968
 424:	02042c2c 	andeq	r2, r4, #11264	; 0x2c00
 428:	2b7e8b03 	blcs	1fa303c <code_start-0x2e05cfc4>
 42c:	f8030104 	stmnvda	r3, {r2, r8}
 430:	2c2c2b01 	stccs	11, cr2, [ip], #-4
 434:	02042c2c 	andeq	r2, r4, #11264	; 0x2c00
 438:	2b7e8403 	blcs	1fa144c <code_start-0x2e05ebb4>
 43c:	83030104 	tsthi	r3, #1	; 0x1
 440:	2c2c2b02 	stccs	11, cr2, [ip], #-8
 444:	2c2c2c2c 	stccs	12, cr2, [ip], #-176
 448:	302c2c2c 	eorcc	r2, ip, ip, lsr #24
 44c:	2c2c2c2c 	stccs	12, cr2, [ip], #-176
 450:	2c2c2c2c 	stccs	12, cr2, [ip], #-176
 454:	2c302c2c 	ldccs	12, cr2, [r0], #-176
 458:	2c2c2c2c 	stccs	12, cr2, [ip], #-176
 45c:	2c2c2c2c 	stccs	12, cr2, [ip], #-176
 460:	2e2c2c2d 	cdpcs	12, 2, cr2, cr12, cr13, {1}
 464:	2c2c2c2c 	stccs	12, cr2, [ip], #-176
 468:	0002022c 	andeq	r0, r2, ip, lsr #4
 46c:	00160101 	andeqs	r0, r6, r1, lsl #2
 470:	00020000 	andeq	r0, r2, r0
 474:	00000010 	andeq	r0, r0, r0, lsl r0
 478:	0efb0102 	cdpeq	1, 15, cr0, cr11, cr2, {0}
 47c:	0101000a 	tsteq	r1, sl
 480:	00000101 	andeq	r0, r0, r1, lsl #2
 484:	00000100 	andeq	r0, r0, r0, lsl #2
 488:	00000278 	andeq	r0, r0, r8, ror r2
 48c:	009d0002 	addeqs	r0, sp, r2
 490:	01020000 	tsteq	r2, r0
 494:	000a0efb 	streqd	r0, [sl], -fp
 498:	01010101 	tsteq	r1, r1, lsl #2
 49c:	01000000 	tsteq	r0, r0
 4a0:	726f772f 	rsbvc	r7, pc, #12320768	; 0xbc0000
 4a4:	6f742f6b 	swivs	0x00742f6b
 4a8:	2f736c6f 	swics	0x00736c6f
 4ac:	61657263 	cmnvs	r5, r3, ror #4
 4b0:	635f6574 	cmpvs	pc, #486539264	; 0x1d000000
 4b4:	73736f72 	cmnvc	r3, #456	; 0x1c8
 4b8:	6c6f6f74 	stcvsl	15, cr6, [pc], #-464
 4bc:	72632f73 	rsbvc	r2, r3, #460	; 0x1cc
 4c0:	7473736f 	ldrvcbt	r7, [r3], #-879
 4c4:	2d6c6f6f 	stccsl	15, cr6, [ip, #-444]!
 4c8:	33342e30 	teqcc	r4, #768	; 0x300
 4cc:	6975622f 	ldmvsdb	r5!, {r0, r1, r2, r3, r5, r9, sp, lr}^
 4d0:	612f646c 	teqvs	pc, ip, ror #8
 4d4:	6c2d6d72 	stcvs	13, cr6, [sp], #-456
 4d8:	78756e69 	ldmvcda	r5!, {r0, r3, r5, r6, r9, sl, fp, sp, lr}^
 4dc:	6363672f 	cmnvs	r3, #12320768	; 0xbc0000
 4e0:	342e332d 	strcct	r3, [lr], #-813
 4e4:	672d352e 	strvs	r3, [sp, -lr, lsr #10]!
 4e8:	6362696c 	cmnvs	r2, #1769472	; 0x1b0000
 4ec:	332e322d 	teqcc	lr, #-805306366	; 0xd0000002
 4f0:	672f362e 	strvs	r3, [pc, -lr, lsr #12]!
 4f4:	332d6363 	teqcc	sp, #-1946157055	; 0x8c000001
 4f8:	352e342e 	strcc	r3, [lr, #-1070]!
 4fc:	6363672f 	cmnvs	r3, #12320768	; 0xbc0000
 500:	6e6f632f 	cdpvs	3, 6, cr6, cr15, cr15, {1}
 504:	2f676966 	swics	0x00676966
 508:	006d7261 	rsbeq	r7, sp, r1, ror #4
 50c:	65656900 	strvsb	r6, [r5, #-2304]!
 510:	34353765 	ldrcct	r3, [r5], #-1893
 514:	2e66642d 	cdpcs	4, 6, cr6, cr6, cr13, {1}
 518:	00010053 	andeq	r0, r1, r3, asr r0
 51c:	62696c00 	rsbvs	r6, r9, #0	; 0x0
 520:	6e756631 	mrcvs	6, 3, r6, cr5, cr1, {1}
 524:	612e7363 	teqvs	lr, r3, ror #6
 528:	01006d73 	tsteq	r0, r3, ror sp
 52c:	00000000 	andeq	r0, r0, r0
 530:	5b9c0205 	blpl	fe700d4c <end+0xce6f92fc>
 534:	b7033000 	strlt	r3, [r3, -r0]
 538:	2c2e0103 	stfcss	f0, [lr], #-12
 53c:	2c2e2c2c 	stccs	12, cr2, [lr], #-176
 540:	2c2c2e2c 	stccs	14, cr2, [ip], #-176
 544:	2d2c2c30 	stccs	12, cr2, [ip, #-192]!
 548:	2c2e2c2e 	stccs	12, cr2, [lr], #-184
 54c:	2c312c2c 	ldccs	12, cr2, [r1], #-176
 550:	2c2c2c2c 	stccs	12, cr2, [ip], #-176
 554:	2c2c2c2c 	stccs	12, cr2, [ip], #-176
 558:	2c2c2c2c 	stccs	12, cr2, [ip], #-176
 55c:	2c2c2c2c 	stccs	12, cr2, [ip], #-176
 560:	2c2c2c2c 	stccs	12, cr2, [ip], #-176
 564:	2c2c2c2c 	stccs	12, cr2, [ip], #-176
 568:	2c2c2c2c 	stccs	12, cr2, [ip], #-176
 56c:	2c2c2c2c 	stccs	12, cr2, [ip], #-176
 570:	2c2c2c2c 	stccs	12, cr2, [ip], #-176
 574:	2c2c2c2c 	stccs	12, cr2, [ip], #-176
 578:	2c2c2c2c 	stccs	12, cr2, [ip], #-176
 57c:	2c2c2c2c 	stccs	12, cr2, [ip], #-176
 580:	032c2c2c 	teqeq	ip, #11264	; 0x2c00
 584:	2e2c2b10 	fmdhrcs	d12, r2
 588:	2c2c2e2c 	stccs	14, cr2, [ip], #-176
 58c:	2c2c2c2c 	stccs	12, cr2, [ip], #-176
 590:	2c2c2c2f 	stccs	12, cr2, [ip], #-188
 594:	2e2c2c2e 	cdpcs	12, 2, cr2, cr12, cr14, {1}
 598:	2c2c2c2c 	stccs	12, cr2, [ip], #-176
 59c:	2e2c2f2c 	cdpcs	15, 2, cr2, cr12, cr12, {1}
 5a0:	2c2e2c2c 	stccs	12, cr2, [lr], #-176
 5a4:	a4030204 	strge	r0, [r3], #-516
 5a8:	01042b7c 	tsteq	r4, ip, ror fp
 5ac:	2b03e103 	blcs	f89c0 <code_start-0x2ff07640>
 5b0:	02042c2d 	andeq	r2, r4, #11520	; 0x2d00
 5b4:	2b7c9c03 	blcs	1f275c8 <code_start-0x2e0d8a38>
 5b8:	e9030104 	stmdb	r3, {r2, r8}
 5bc:	2c2c2b03 	stccs	11, cr2, [ip], #-12
 5c0:	95030204 	strls	r0, [r3, #-516]
 5c4:	01042b7c 	tsteq	r4, ip, ror fp
 5c8:	2b03f003 	blcs	fc5dc <code_start-0x2ff03a24>
 5cc:	2c2c2c2c 	stccs	12, cr2, [ip], #-176
 5d0:	2c2c2c2e 	stccs	12, cr2, [ip], #-184
 5d4:	2c2c2c2c 	stccs	12, cr2, [ip], #-176
 5d8:	2c2c2c2c 	stccs	12, cr2, [ip], #-176
 5dc:	0302042c 	tsteq	r2, #738197504	; 0x2c000000
 5e0:	042b7bfd 	streqt	r7, [fp], #-3069
 5e4:	04880301 	streq	r0, [r8], #769
 5e8:	2c2c2c2b 	stccs	12, cr2, [ip], #-172
 5ec:	2c2c2c2c 	stccs	12, cr2, [ip], #-176
 5f0:	042c2c2c 	streqt	r2, [ip], #-3116
 5f4:	7bee0302 	blvc	ffb81204 <end+0xcfb797b4>
 5f8:	0301042b 	tsteq	r1, #721420288	; 0x2b000000
 5fc:	2c2b0497 	cfstrscs	mvf0, [fp], #-604
 600:	2c2c2c2c 	stccs	12, cr2, [ip], #-176
 604:	2c2c2c2c 	stccs	12, cr2, [ip], #-176
 608:	0302042c 	tsteq	r2, #738197504	; 0x2c000000
 60c:	042b7bdf 	streqt	r7, [fp], #-3039
 610:	04a70301 	streqt	r0, [r7], #769
 614:	2c2c2c2b 	stccs	12, cr2, [ip], #-172
 618:	2c2c2c2c 	stccs	12, cr2, [ip], #-176
 61c:	2c2c2c2c 	stccs	12, cr2, [ip], #-176
 620:	2c2c2c2c 	stccs	12, cr2, [ip], #-176
 624:	2c2c2c2c 	stccs	12, cr2, [ip], #-176
 628:	2c2c2c2f 	stccs	12, cr2, [ip], #-188
 62c:	2c2c2c2c 	stccs	12, cr2, [ip], #-176
 630:	2f2c2c2c 	swics	0x002c2c2c
 634:	2c2c2c2f 	stccs	12, cr2, [ip], #-188
 638:	ad030204 	sfmge	f0, 4, [r3, #-16]
 63c:	01042b7b 	tsteq	r4, fp, ror fp
 640:	2b04d803 	blcs	136654 <code_start-0x2fec99ac>
 644:	0302042c 	tsteq	r2, #738197504	; 0x2c000000
 648:	042b7ba7 	streqt	r7, [fp], #-2983
 64c:	04e00301 	streqbt	r0, [r0], #769
 650:	2c2c2e2b 	stccs	14, cr2, [ip], #-172
 654:	2c2c2e2c 	stccs	14, cr2, [ip], #-176
 658:	2c302c2c 	ldccs	12, cr2, [r0], #-176
 65c:	2f2e2d2c 	swics	0x002e2d2c
 660:	2c2c2c2c 	stccs	12, cr2, [ip], #-176
 664:	2c2c2c2c 	stccs	12, cr2, [ip], #-176
 668:	2e2e2c2c 	cdpcs	12, 2, cr2, cr14, cr12, {1}
 66c:	2c2c2c2c 	stccs	12, cr2, [ip], #-176
 670:	2c2c2e2c 	stccs	14, cr2, [ip], #-176
 674:	2e2c2c2c 	cdpcs	12, 2, cr2, cr12, cr12, {1}
 678:	2c2c2c2c 	stccs	12, cr2, [ip], #-176
 67c:	2c2c2e2c 	stccs	14, cr2, [ip], #-176
 680:	2c2c2c2c 	stccs	12, cr2, [ip], #-176
 684:	2c2c2c2c 	stccs	12, cr2, [ip], #-176
 688:	2c2c2c2c 	stccs	12, cr2, [ip], #-176
 68c:	2c2c2c2c 	stccs	12, cr2, [ip], #-176
 690:	2c2c2c2c 	stccs	12, cr2, [ip], #-176
 694:	2d2c2c2c 	stccs	12, cr2, [ip, #-176]!
 698:	2c2c2c2c 	stccs	12, cr2, [ip], #-176
 69c:	2c2c2c2c 	stccs	12, cr2, [ip], #-176
 6a0:	2c2c2f2c 	stccs	15, cr2, [ip], #-176
 6a4:	2e2c2c2c 	cdpcs	12, 2, cr2, cr12, cr12, {1}
 6a8:	2c2e2c2c 	stccs	12, cr2, [lr], #-176
 6ac:	2c2c2c2e 	stccs	12, cr2, [ip], #-184
 6b0:	2c2e2c2c 	stccs	12, cr2, [lr], #-176
 6b4:	99030204 	stmlsdb	r3, {r2, r9}
 6b8:	01042b7a 	tsteq	r4, sl, ror fp
 6bc:	2b05ec03 	blcs	17b6d0 <code_start-0x2fe84930>
 6c0:	2c2c2c2c 	stccs	12, cr2, [ip], #-176
 6c4:	042c2c2c 	streqt	r2, [ip], #-3116
 6c8:	7a8d0302 	bvc	fe3412d8 <end+0xce339888>
 6cc:	0301042b 	tsteq	r1, #721420288	; 0x2b000000
 6d0:	2c2b05f6 	cfstr32cs	mvfx0, [fp], #-984
 6d4:	302c2c2c 	eorcc	r2, ip, ip, lsr #24
 6d8:	2c2c302c 	stccs	0, cr3, [ip], #-176
 6dc:	2c2c2c2c 	stccs	12, cr2, [ip], #-176
 6e0:	2c2c2c2c 	stccs	12, cr2, [ip], #-176
 6e4:	2c2c2c2c 	stccs	12, cr2, [ip], #-176
 6e8:	2c2c2c2c 	stccs	12, cr2, [ip], #-176
 6ec:	2c2c2f2c 	stccs	15, cr2, [ip], #-176
 6f0:	2c2c2c2c 	stccs	12, cr2, [ip], #-176
 6f4:	2c2c2c2c 	stccs	12, cr2, [ip], #-176
 6f8:	2c2d2c2c 	stccs	12, cr2, [sp], #-176
 6fc:	022c2c2c 	eoreq	r2, ip, #11264	; 0x2c00
 700:	01010002 	tsteq	r1, r2
 704:	00000016 	andeq	r0, r0, r6, lsl r0
 708:	00100002 	andeqs	r0, r0, r2
 70c:	01020000 	tsteq	r2, r0
 710:	000a0efb 	streqd	r0, [sl], -fp
 714:	01010101 	tsteq	r1, r1, lsl #2
 718:	01000000 	tsteq	r0, r0
 71c:	00c10000 	sbceq	r0, r1, r0
 720:	00020000 	andeq	r0, r2, r0
 724:	0000008c 	andeq	r0, r0, ip, lsl #1
 728:	0efb0102 	cdpeq	1, 15, cr0, cr11, cr2, {0}
 72c:	0101000a 	tsteq	r1, sl
 730:	00000101 	andeq	r0, r0, r1, lsl #2
 734:	772f0100 	strvc	r0, [pc, -r0, lsl #2]!
 738:	2f6b726f 	swics	0x006b726f
 73c:	6c6f6f74 	stcvsl	15, cr6, [pc], #-464
 740:	72632f73 	rsbvc	r2, r3, #460	; 0x1cc
 744:	65746165 	ldrvsb	r6, [r4, #-357]!
 748:	6f72635f 	swivs	0x0072635f
 74c:	6f747373 	swivs	0x00747373
 750:	2f736c6f 	swics	0x00736c6f
 754:	736f7263 	cmnvc	pc, #805306374	; 0x30000006
 758:	6f6f7473 	swivs	0x006f7473
 75c:	2e302d6c 	cdpcs	13, 3, cr2, cr0, cr12, {3}
 760:	622f3334 	eorvs	r3, pc, #-805306368	; 0xd0000000
 764:	646c6975 	strvsbt	r6, [ip], #-2421
 768:	6d72612f 	ldfvse	f6, [r2, #-188]!
 76c:	6e696c2d 	cdpvs	12, 6, cr6, cr9, cr13, {1}
 770:	672f7875 	undefined
 774:	332d6363 	teqcc	sp, #-1946157055	; 0x8c000001
 778:	352e342e 	strcc	r3, [lr, #-1070]!
 77c:	696c672d 	stmvsdb	ip!, {r0, r2, r3, r5, r8, r9, sl, sp, lr}^
 780:	322d6362 	eorcc	r6, sp, #-2013265919	; 0x88000001
 784:	362e332e 	strcct	r3, [lr], -lr, lsr #6
 788:	6363672f 	cmnvs	r3, #12320768	; 0xbc0000
 78c:	342e332d 	strcct	r3, [lr], #-813
 790:	672f352e 	strvs	r3, [pc, -lr, lsr #10]!
 794:	632f6363 	teqvs	pc, #-1946157055	; 0x8c000001
 798:	69666e6f 	stmvsdb	r6!, {r0, r1, r2, r3, r5, r6, r9, sl, fp, sp, lr}^
 79c:	72612f67 	rsbvc	r2, r1, #412	; 0x19c
 7a0:	6900006d 	stmvsdb	r0, {r0, r2, r3, r5, r6}
 7a4:	37656565 	strccb	r6, [r5, -r5, ror #10]!
 7a8:	642d3435 	strvst	r3, [sp], #-1077
 7ac:	00532e66 	subeqs	r2, r3, r6, ror #28
 7b0:	00000001 	andeq	r0, r0, r1
 7b4:	1c020500 	cfstr32ne	mvfx0, [r2], {0}
 7b8:	03300061 	teqeq	r0, #97	; 0x61
 7bc:	2c010896 	stccs	8, cr0, [r1], {150}
 7c0:	2c2c2e2d 	stccs	14, cr2, [ip], #-180
 7c4:	2c2c2c2c 	stccs	12, cr2, [ip], #-176
 7c8:	2c2c2c2c 	stccs	12, cr2, [ip], #-176
 7cc:	2c2c2c2d 	stccs	12, cr2, [ip], #-180
 7d0:	2c2c2c2c 	stccs	12, cr2, [ip], #-176
 7d4:	2d2c2d2c 	stccs	13, cr2, [ip, #-176]!
 7d8:	2c2c2c2c 	stccs	12, cr2, [ip], #-176
 7dc:	02022c2d 	andeq	r2, r2, #11520	; 0x2d00
 7e0:	16010100 	strne	r0, [r1], -r0, lsl #2
 7e4:	02000000 	andeq	r0, r0, #0	; 0x0
 7e8:	00001000 	andeq	r1, r0, r0
 7ec:	fb010200 	blx	40ff6 <code_start-0x2ffbf00a>
 7f0:	01000a0e 	tsteq	r0, lr, lsl #20
 7f4:	00010101 	andeq	r0, r1, r1, lsl #2
 7f8:	00010000 	andeq	r0, r1, r0
	...
